
bin/reflex:     file format elf32-littlearm


Disassembly of section .text:

08000000 <g_vectors>:
 8000000:	68 3d 01 20 cd 04 00 08 c9 04 00 08 c9 04 00 08     h=. ............
 8000010:	c9 04 00 08 c9 04 00 08 c9 04 00 08 00 00 00 00     ................
	...
 800002c:	c9 04 00 08 c9 04 00 08 00 00 00 00 c9 04 00 08     ................
 800003c:	c9 04 00 08 c9 04 00 08 c9 04 00 08 c9 04 00 08     ................
 800004c:	c9 04 00 08 c9 04 00 08 c9 04 00 08 c9 04 00 08     ................
 800005c:	c9 04 00 08 c9 04 00 08 c9 04 00 08 c9 04 00 08     ................
 800006c:	c9 04 00 08 c9 04 00 08 c9 04 00 08 c9 04 00 08     ................
 800007c:	c9 04 00 08 c9 04 00 08 c9 04 00 08 c9 04 00 08     ................
 800008c:	c9 04 00 08 c9 04 00 08 c9 04 00 08 c9 04 00 08     ................
 800009c:	c9 04 00 08 c9 04 00 08 c9 04 00 08 c9 04 00 08     ................
 80000ac:	c9 04 00 08 c9 04 00 08 c9 04 00 08 c9 04 00 08     ................
 80000bc:	c9 04 00 08 c9 04 00 08 c9 04 00 08 c9 04 00 08     ................
 80000cc:	c9 04 00 08 c9 04 00 08 c9 04 00 08 c9 04 00 08     ................
 80000dc:	25 12 00 08 c9 04 00 08 c9 04 00 08 c9 04 00 08     %...............
 80000ec:	c9 04 00 08 c9 04 00 08 c9 04 00 08 c9 04 00 08     ................
 80000fc:	c9 04 00 08 c9 04 00 08 c9 04 00 08 c9 04 00 08     ................
 800010c:	c9 04 00 08 61 12 00 08 a1 12 00 08 c9 04 00 08     ....a...........
 800011c:	c9 04 00 08 c9 04 00 08 c9 04 00 08 c9 04 00 08     ................
 800012c:	c9 04 00 08 c9 04 00 08 f5 0c 00 08 c9 04 00 08     ................
 800013c:	c9 04 00 08 c9 04 00 08 c9 04 00 08 c9 04 00 08     ................
 800014c:	c9 04 00 08 c9 04 00 08 c9 04 00 08 c9 04 00 08     ................
 800015c:	e1 12 00 08 c9 04 00 08 c9 04 00 08 c9 04 00 08     ................
 800016c:	c9 04 00 08 c9 04 00 08 c9 04 00 08 c9 04 00 08     ................
 800017c:	c9 04 00 08 c9 04 00 08 c9 04 00 08 c9 04 00 08     ................
 800018c:	c9 04 00 08 c9 04 00 08 c9 04 00 08 c9 04 00 08     ................
 800019c:	c9 04 00 08 c9 04 00 08 c9 04 00 08 c9 04 00 08     ................
	...

08000400 <__do_global_dtors_aux>:
 8000400:	b510      	push	{r4, lr}
 8000402:	4c05      	ldr	r4, [pc, #20]	; (8000418 <__do_global_dtors_aux+0x18>)
 8000404:	7823      	ldrb	r3, [r4, #0]
 8000406:	b933      	cbnz	r3, 8000416 <__do_global_dtors_aux+0x16>
 8000408:	4b04      	ldr	r3, [pc, #16]	; (800041c <__do_global_dtors_aux+0x1c>)
 800040a:	b113      	cbz	r3, 8000412 <__do_global_dtors_aux+0x12>
 800040c:	4804      	ldr	r0, [pc, #16]	; (8000420 <__do_global_dtors_aux+0x20>)
 800040e:	f3af 8000 	nop.w
 8000412:	2301      	movs	r3, #1
 8000414:	7023      	strb	r3, [r4, #0]
 8000416:	bd10      	pop	{r4, pc}
 8000418:	20000930 	.word	0x20000930
 800041c:	00000000 	.word	0x00000000
 8000420:	0800935c 	.word	0x0800935c

08000424 <frame_dummy>:
 8000424:	b508      	push	{r3, lr}
 8000426:	4b06      	ldr	r3, [pc, #24]	; (8000440 <frame_dummy+0x1c>)
 8000428:	b11b      	cbz	r3, 8000432 <frame_dummy+0xe>
 800042a:	4806      	ldr	r0, [pc, #24]	; (8000444 <frame_dummy+0x20>)
 800042c:	4906      	ldr	r1, [pc, #24]	; (8000448 <frame_dummy+0x24>)
 800042e:	f3af 8000 	nop.w
 8000432:	4806      	ldr	r0, [pc, #24]	; (800044c <frame_dummy+0x28>)
 8000434:	6803      	ldr	r3, [r0, #0]
 8000436:	b113      	cbz	r3, 800043e <frame_dummy+0x1a>
 8000438:	4b05      	ldr	r3, [pc, #20]	; (8000450 <frame_dummy+0x2c>)
 800043a:	b103      	cbz	r3, 800043e <frame_dummy+0x1a>
 800043c:	4798      	blx	r3
 800043e:	bd08      	pop	{r3, pc}
 8000440:	00000000 	.word	0x00000000
 8000444:	0800935c 	.word	0x0800935c
 8000448:	20000934 	.word	0x20000934
 800044c:	08009360 	.word	0x08009360
 8000450:	00000000 	.word	0x00000000

08000454 <_mainCRTStartup>:
 8000454:	4b15      	ldr	r3, [pc, #84]	; (80004ac <_mainCRTStartup+0x58>)
 8000456:	2b00      	cmp	r3, #0
 8000458:	bf08      	it	eq
 800045a:	4b13      	ldreq	r3, [pc, #76]	; (80004a8 <_mainCRTStartup+0x54>)
 800045c:	469d      	mov	sp, r3
 800045e:	f5a3 3a80 	sub.w	sl, r3, #65536	; 0x10000
 8000462:	2100      	movs	r1, #0
 8000464:	468b      	mov	fp, r1
 8000466:	460f      	mov	r7, r1
 8000468:	4813      	ldr	r0, [pc, #76]	; (80004b8 <_mainCRTStartup+0x64>)
 800046a:	4a14      	ldr	r2, [pc, #80]	; (80004bc <_mainCRTStartup+0x68>)
 800046c:	1a12      	subs	r2, r2, r0
 800046e:	f001 ff4d 	bl	800230c <memset>
 8000472:	4b0f      	ldr	r3, [pc, #60]	; (80004b0 <_mainCRTStartup+0x5c>)
 8000474:	2b00      	cmp	r3, #0
 8000476:	d000      	beq.n	800047a <_mainCRTStartup+0x26>
 8000478:	4798      	blx	r3
 800047a:	4b0e      	ldr	r3, [pc, #56]	; (80004b4 <_mainCRTStartup+0x60>)
 800047c:	2b00      	cmp	r3, #0
 800047e:	d000      	beq.n	8000482 <_mainCRTStartup+0x2e>
 8000480:	4798      	blx	r3
 8000482:	2000      	movs	r0, #0
 8000484:	2100      	movs	r1, #0
 8000486:	0004      	movs	r4, r0
 8000488:	000d      	movs	r5, r1
 800048a:	480d      	ldr	r0, [pc, #52]	; (80004c0 <_mainCRTStartup+0x6c>)
 800048c:	2800      	cmp	r0, #0
 800048e:	d002      	beq.n	8000496 <_mainCRTStartup+0x42>
 8000490:	480c      	ldr	r0, [pc, #48]	; (80004c4 <_mainCRTStartup+0x70>)
 8000492:	f003 fbdd 	bl	8003c50 <atexit>
 8000496:	f001 fe77 	bl	8002188 <__libc_init_array>
 800049a:	0020      	movs	r0, r4
 800049c:	0029      	movs	r1, r5
 800049e:	f000 f8bb 	bl	8000618 <main>
 80004a2:	f001 fe61 	bl	8002168 <exit>
 80004a6:	bf00      	nop
 80004a8:	00080000 	.word	0x00080000
	...
 80004b8:	20000930 	.word	0x20000930
 80004bc:	2000fd70 	.word	0x2000fd70
 80004c0:	08003c51 	.word	0x08003c51
 80004c4:	08004f9d 	.word	0x08004f9d

080004c8 <unmapped_vector>:
  main(); // jump to application main()
  while (1) { } // hopefully we never get here...
}

void unmapped_vector()
{
 80004c8:	e7fe      	b.n	80004c8 <unmapped_vector>
 80004ca:	bf00      	nop

080004cc <reset_vector>:
extern int main();

void startup_clock_init_fail() { while (1) { } }

void reset_vector()
{
 80004cc:	b510      	push	{r4, lr}
 80004ce:	b082      	sub	sp, #8
  This function disables IRQ interrupts by setting the I-bit in the CPSR.
  Can only be executed in Privileged modes.
 */
__attribute__( ( always_inline ) ) __STATIC_INLINE void __disable_irq(void)
{
  __ASM volatile ("cpsid i" : : : "memory");
 80004d0:	b672      	cpsid	i
  //WDT->WDT_MR = WDT_MR_WDDIS; // disable watchdog for now
  // set up data segment
  __disable_irq();
  pSrc = &_srelocate_flash;
  pDest = &_srelocate;
  if (pSrc != pDest)
 80004d2:	4845      	ldr	r0, [pc, #276]	; (80005e8 <reset_vector+0x11c>)
 80004d4:	4a45      	ldr	r2, [pc, #276]	; (80005ec <reset_vector+0x120>)
 80004d6:	4290      	cmp	r0, r2
 80004d8:	d00d      	beq.n	80004f6 <reset_vector+0x2a>
    for (; pDest < &_erelocate; )
 80004da:	4b45      	ldr	r3, [pc, #276]	; (80005f0 <reset_vector+0x124>)
 80004dc:	429a      	cmp	r2, r3
 80004de:	d20a      	bcs.n	80004f6 <reset_vector+0x2a>
 80004e0:	43d1      	mvns	r1, r2
 80004e2:	440b      	add	r3, r1
 80004e4:	f023 0403 	bic.w	r4, r3, #3
 80004e8:	3404      	adds	r4, #4
 80004ea:	2300      	movs	r3, #0
      *pDest++ = *pSrc++;
 80004ec:	58c1      	ldr	r1, [r0, r3]
 80004ee:	50d1      	str	r1, [r2, r3]
 80004f0:	3304      	adds	r3, #4
  // set up data segment
  __disable_irq();
  pSrc = &_srelocate_flash;
  pDest = &_srelocate;
  if (pSrc != pDest)
    for (; pDest < &_erelocate; )
 80004f2:	42a3      	cmp	r3, r4
 80004f4:	d1fa      	bne.n	80004ec <reset_vector+0x20>
      *pDest++ = *pSrc++;
  // set up bss segment
  for (pDest = &_sbss; pDest < &_ebss; )
 80004f6:	4b3f      	ldr	r3, [pc, #252]	; (80005f4 <reset_vector+0x128>)
 80004f8:	4a3f      	ldr	r2, [pc, #252]	; (80005f8 <reset_vector+0x12c>)
 80004fa:	4293      	cmp	r3, r2
 80004fc:	d20a      	bcs.n	8000514 <reset_vector+0x48>
 80004fe:	43d9      	mvns	r1, r3
 8000500:	440a      	add	r2, r1
 8000502:	f022 0103 	bic.w	r1, r2, #3
 8000506:	4419      	add	r1, r3
    *pDest++ = 0;
 8000508:	2200      	movs	r2, #0
 800050a:	3b04      	subs	r3, #4
 800050c:	f843 2f04 	str.w	r2, [r3, #4]!
  pDest = &_srelocate;
  if (pSrc != pDest)
    for (; pDest < &_erelocate; )
      *pDest++ = *pSrc++;
  // set up bss segment
  for (pDest = &_sbss; pDest < &_ebss; )
 8000510:	428b      	cmp	r3, r1
 8000512:	d1fb      	bne.n	800050c <reset_vector+0x40>
    *pDest++ = 0;
  //__libc_init_array() ;
  SCB->CPACR |= ((3UL << (10*2)) | (3UL << (11*2))); // activate the FPU
 8000514:	4a39      	ldr	r2, [pc, #228]	; (80005fc <reset_vector+0x130>)
  RCC->CR |= 0x1; // ensure the HSI (internal) oscillator is on
 8000516:	4b3a      	ldr	r3, [pc, #232]	; (8000600 <reset_vector+0x134>)
      *pDest++ = *pSrc++;
  // set up bss segment
  for (pDest = &_sbss; pDest < &_ebss; )
    *pDest++ = 0;
  //__libc_init_array() ;
  SCB->CPACR |= ((3UL << (10*2)) | (3UL << (11*2))); // activate the FPU
 8000518:	f8d2 1088 	ldr.w	r1, [r2, #136]	; 0x88
  RCC->CR |= 0x1; // ensure the HSI (internal) oscillator is on
  RCC->CFGR = 0; // ensure the HSI oscillator is the clock source
  RCC->CR &= 0xfef6ffff; // turn off the main PLL and HSE oscillator
  RCC->PLLCFGR = 0x24003010; // ensure PLLCFGR is at reset state
 800051c:	4839      	ldr	r0, [pc, #228]	; (8000604 <reset_vector+0x138>)
      *pDest++ = *pSrc++;
  // set up bss segment
  for (pDest = &_sbss; pDest < &_ebss; )
    *pDest++ = 0;
  //__libc_init_array() ;
  SCB->CPACR |= ((3UL << (10*2)) | (3UL << (11*2))); // activate the FPU
 800051e:	f441 0170 	orr.w	r1, r1, #15728640	; 0xf00000
 8000522:	f8c2 1088 	str.w	r1, [r2, #136]	; 0x88
  RCC->CR |= 0x1; // ensure the HSI (internal) oscillator is on
 8000526:	6819      	ldr	r1, [r3, #0]
  RCC->CFGR = 0; // ensure the HSI oscillator is the clock source
 8000528:	2200      	movs	r2, #0
  // set up bss segment
  for (pDest = &_sbss; pDest < &_ebss; )
    *pDest++ = 0;
  //__libc_init_array() ;
  SCB->CPACR |= ((3UL << (10*2)) | (3UL << (11*2))); // activate the FPU
  RCC->CR |= 0x1; // ensure the HSI (internal) oscillator is on
 800052a:	f041 0101 	orr.w	r1, r1, #1
 800052e:	6019      	str	r1, [r3, #0]
  RCC->CFGR = 0; // ensure the HSI oscillator is the clock source
 8000530:	609a      	str	r2, [r3, #8]
  RCC->CR &= 0xfef6ffff; // turn off the main PLL and HSE oscillator
 8000532:	6819      	ldr	r1, [r3, #0]
 8000534:	f021 7184 	bic.w	r1, r1, #17301504	; 0x1080000
 8000538:	f421 3180 	bic.w	r1, r1, #65536	; 0x10000
 800053c:	6019      	str	r1, [r3, #0]
  RCC->PLLCFGR = 0x24003010; // ensure PLLCFGR is at reset state
 800053e:	6058      	str	r0, [r3, #4]
  RCC->CR &= 0xfffbffff; // reset HSEBYP (i.e., HSE is *not* bypassed)
 8000540:	6819      	ldr	r1, [r3, #0]
 8000542:	f421 2180 	bic.w	r1, r1, #262144	; 0x40000
 8000546:	6019      	str	r1, [r3, #0]
  RCC->CIR = 0x0; // disable all RCC interrupts
 8000548:	60da      	str	r2, [r3, #12]
  RCC->CR |= RCC_CR_HSEON; // enable HSE oscillator (off-chip crystal)
 800054a:	6819      	ldr	r1, [r3, #0]
 800054c:	f441 3180 	orr.w	r1, r1, #65536	; 0x10000
 8000550:	6019      	str	r1, [r3, #0]
  for (volatile uint32_t i = 0; 
 8000552:	9201      	str	r2, [sp, #4]
       i < HSE_STARTUP_TIMEOUT && !(RCC->CR & RCC_CR_HSERDY); i++)
 8000554:	9a01      	ldr	r2, [sp, #4]
  RCC->CR &= 0xfef6ffff; // turn off the main PLL and HSE oscillator
  RCC->PLLCFGR = 0x24003010; // ensure PLLCFGR is at reset state
  RCC->CR &= 0xfffbffff; // reset HSEBYP (i.e., HSE is *not* bypassed)
  RCC->CIR = 0x0; // disable all RCC interrupts
  RCC->CR |= RCC_CR_HSEON; // enable HSE oscillator (off-chip crystal)
  for (volatile uint32_t i = 0; 
 8000556:	f5b2 4fa0 	cmp.w	r2, #20480	; 0x5000
 800055a:	d307      	bcc.n	800056c <reset_vector+0xa0>
 800055c:	e009      	b.n	8000572 <reset_vector+0xa6>
       i < HSE_STARTUP_TIMEOUT && !(RCC->CR & RCC_CR_HSERDY); i++)
 800055e:	9a01      	ldr	r2, [sp, #4]
 8000560:	3201      	adds	r2, #1
 8000562:	9201      	str	r2, [sp, #4]
 8000564:	9a01      	ldr	r2, [sp, #4]
  RCC->CR &= 0xfef6ffff; // turn off the main PLL and HSE oscillator
  RCC->PLLCFGR = 0x24003010; // ensure PLLCFGR is at reset state
  RCC->CR &= 0xfffbffff; // reset HSEBYP (i.e., HSE is *not* bypassed)
  RCC->CIR = 0x0; // disable all RCC interrupts
  RCC->CR |= RCC_CR_HSEON; // enable HSE oscillator (off-chip crystal)
  for (volatile uint32_t i = 0; 
 8000566:	f5b2 4fa0 	cmp.w	r2, #20480	; 0x5000
 800056a:	d202      	bcs.n	8000572 <reset_vector+0xa6>
       i < HSE_STARTUP_TIMEOUT && !(RCC->CR & RCC_CR_HSERDY); i++)
 800056c:	681a      	ldr	r2, [r3, #0]
 800056e:	0390      	lsls	r0, r2, #14
 8000570:	d5f5      	bpl.n	800055e <reset_vector+0x92>
  { } // wait for either timeout or HSE to spin up
  FLASH->ACR = 0; // ensure the caches are turned off, so we can reset them
 8000572:	4a25      	ldr	r2, [pc, #148]	; (8000608 <reset_vector+0x13c>)
  FLASH->ACR = FLASH_ACR_DCRST | FLASH_ACR_ICRST; // flush the cache
  FLASH->ACR = FLASH_ACR_PRFTEN | FLASH_ACR_ICEN | 
               FLASH_ACR_DCEN | FLASH_ACR_LATENCY_5WS; // re-enable the caches
  if (!(RCC->CR & RCC_CR_HSERDY))
 8000574:	4b22      	ldr	r3, [pc, #136]	; (8000600 <reset_vector+0x134>)
  RCC->CIR = 0x0; // disable all RCC interrupts
  RCC->CR |= RCC_CR_HSEON; // enable HSE oscillator (off-chip crystal)
  for (volatile uint32_t i = 0; 
       i < HSE_STARTUP_TIMEOUT && !(RCC->CR & RCC_CR_HSERDY); i++)
  { } // wait for either timeout or HSE to spin up
  FLASH->ACR = 0; // ensure the caches are turned off, so we can reset them
 8000576:	2400      	movs	r4, #0
  FLASH->ACR = FLASH_ACR_DCRST | FLASH_ACR_ICRST; // flush the cache
 8000578:	f44f 50c0 	mov.w	r0, #6144	; 0x1800
  FLASH->ACR = FLASH_ACR_PRFTEN | FLASH_ACR_ICEN | 
 800057c:	f240 7105 	movw	r1, #1797	; 0x705
  RCC->CIR = 0x0; // disable all RCC interrupts
  RCC->CR |= RCC_CR_HSEON; // enable HSE oscillator (off-chip crystal)
  for (volatile uint32_t i = 0; 
       i < HSE_STARTUP_TIMEOUT && !(RCC->CR & RCC_CR_HSERDY); i++)
  { } // wait for either timeout or HSE to spin up
  FLASH->ACR = 0; // ensure the caches are turned off, so we can reset them
 8000580:	6014      	str	r4, [r2, #0]
  FLASH->ACR = FLASH_ACR_DCRST | FLASH_ACR_ICRST; // flush the cache
 8000582:	6010      	str	r0, [r2, #0]
  FLASH->ACR = FLASH_ACR_PRFTEN | FLASH_ACR_ICEN | 
 8000584:	6011      	str	r1, [r2, #0]
               FLASH_ACR_DCEN | FLASH_ACR_LATENCY_5WS; // re-enable the caches
  if (!(RCC->CR & RCC_CR_HSERDY))
 8000586:	681a      	ldr	r2, [r3, #0]
 8000588:	0394      	lsls	r4, r2, #14
 800058a:	d400      	bmi.n	800058e <reset_vector+0xc2>
 800058c:	e7fe      	b.n	800058c <reset_vector+0xc0>
    startup_clock_init_fail(); // go there and spin forever. BUH BYE
  RCC->APB1ENR |= RCC_APB1ENR_PWREN; // clock up the power controller
 800058e:	6c18      	ldr	r0, [r3, #64]	; 0x40
  PWR->CR |= PWR_CR_VOS; // ensure the voltage regulator is at max beef
 8000590:	4a1e      	ldr	r2, [pc, #120]	; (800060c <reset_vector+0x140>)
  // PLL_VCO = 25 mhz / PLL_M * PLL_N = 336 MHz
  #define PLL_P   2
  // SYSCLK = PLL_VCO / PLL_P = 168 MHz
  #define PLL_Q   7
  // USB clock = PLL_VCO / PLL_Q = 48 MHz
  RCC->PLLCFGR = PLL_M | (PLL_N << 6) | (((PLL_P >> 1)-1) << 16) |
 8000592:	491f      	ldr	r1, [pc, #124]	; (8000610 <reset_vector+0x144>)
  FLASH->ACR = FLASH_ACR_DCRST | FLASH_ACR_ICRST; // flush the cache
  FLASH->ACR = FLASH_ACR_PRFTEN | FLASH_ACR_ICEN | 
               FLASH_ACR_DCEN | FLASH_ACR_LATENCY_5WS; // re-enable the caches
  if (!(RCC->CR & RCC_CR_HSERDY))
    startup_clock_init_fail(); // go there and spin forever. BUH BYE
  RCC->APB1ENR |= RCC_APB1ENR_PWREN; // clock up the power controller
 8000594:	f040 5080 	orr.w	r0, r0, #268435456	; 0x10000000
 8000598:	6418      	str	r0, [r3, #64]	; 0x40
  PWR->CR |= PWR_CR_VOS; // ensure the voltage regulator is at max beef
 800059a:	6810      	ldr	r0, [r2, #0]
 800059c:	f440 4040 	orr.w	r0, r0, #49152	; 0xc000
 80005a0:	6010      	str	r0, [r2, #0]
                         // this will let us run at 168 MHz without overdrive
  RCC->CFGR |= RCC_CFGR_HPRE_DIV1; // set HCLK (AHB clock) to sysclock
 80005a2:	689a      	ldr	r2, [r3, #8]
 80005a4:	609a      	str	r2, [r3, #8]
  RCC->CFGR |= RCC_CFGR_PPRE2_DIV2; // set APB high-speed clock to sysclock/2
 80005a6:	689a      	ldr	r2, [r3, #8]
 80005a8:	f442 4200 	orr.w	r2, r2, #32768	; 0x8000
 80005ac:	609a      	str	r2, [r3, #8]
  RCC->CFGR |= RCC_CFGR_PPRE1_DIV4; // set APB  low-speed clock to sysclock/4
 80005ae:	689a      	ldr	r2, [r3, #8]
 80005b0:	f442 52a0 	orr.w	r2, r2, #5120	; 0x1400
 80005b4:	609a      	str	r2, [r3, #8]
  // PLL_VCO = 25 mhz / PLL_M * PLL_N = 336 MHz
  #define PLL_P   2
  // SYSCLK = PLL_VCO / PLL_P = 168 MHz
  #define PLL_Q   7
  // USB clock = PLL_VCO / PLL_Q = 48 MHz
  RCC->PLLCFGR = PLL_M | (PLL_N << 6) | (((PLL_P >> 1)-1) << 16) |
 80005b6:	6059      	str	r1, [r3, #4]
                 (RCC_PLLCFGR_PLLSRC_HSE) | (PLL_Q << 24);
  RCC->CR |= RCC_CR_PLLON; // start spinning up the PLL
 80005b8:	681a      	ldr	r2, [r3, #0]
 80005ba:	f042 7280 	orr.w	r2, r2, #16777216	; 0x1000000
 80005be:	601a      	str	r2, [r3, #0]
  while (!(RCC->CR & RCC_CR_PLLRDY)) { } // wait until it's spun up
 80005c0:	6819      	ldr	r1, [r3, #0]
 80005c2:	4a0f      	ldr	r2, [pc, #60]	; (8000600 <reset_vector+0x134>)
 80005c4:	0189      	lsls	r1, r1, #6
 80005c6:	d5fb      	bpl.n	80005c0 <reset_vector+0xf4>
  RCC->CFGR &= ~((uint32_t)RCC_CFGR_SW); // select internal oscillator
 80005c8:	6893      	ldr	r3, [r2, #8]
 80005ca:	f023 0303 	bic.w	r3, r3, #3
 80005ce:	6093      	str	r3, [r2, #8]
  RCC->CFGR |= RCC_CFGR_SW_PLL; // select PLL as clock source
 80005d0:	6893      	ldr	r3, [r2, #8]
 80005d2:	f043 0302 	orr.w	r3, r3, #2
 80005d6:	6093      	str	r3, [r2, #8]
  while ((RCC->CFGR & RCC_CFGR_SWS) != RCC_CFGR_SWS_PLL) { } // wait for it...
 80005d8:	6893      	ldr	r3, [r2, #8]
 80005da:	f003 030c 	and.w	r3, r3, #12
 80005de:	2b08      	cmp	r3, #8
 80005e0:	d1fa      	bne.n	80005d8 <reset_vector+0x10c>
  // hooray we're done! we're now running at 168 MHz.
  main(); // jump to application main()
 80005e2:	f000 f819 	bl	8000618 <main>
 80005e6:	e7fe      	b.n	80005e6 <reset_vector+0x11a>
 80005e8:	0800936c 	.word	0x0800936c
 80005ec:	20000000 	.word	0x20000000
 80005f0:	2000092c 	.word	0x2000092c
 80005f4:	20000930 	.word	0x20000930
 80005f8:	2000fd70 	.word	0x2000fd70
 80005fc:	e000ed00 	.word	0xe000ed00
 8000600:	40023800 	.word	0x40023800
 8000604:	24003010 	.word	0x24003010
 8000608:	40023c00 	.word	0x40023c00
 800060c:	40007000 	.word	0x40007000
 8000610:	07405419 	.word	0x07405419

08000614 <startup_clock_init_fail>:
#include "stm32f4xx.h"

extern uint32_t _srelocate_flash, _srelocate, _erelocate, _ebss, _sbss;
extern int main();

void startup_clock_init_fail() { while (1) { } }
 8000614:	e7fe      	b.n	8000614 <startup_clock_init_fail>
 8000616:	bf00      	nop

08000618 <main>:
#include "state.h"

//#define PRINT_TACTILE_TIMING

int main()
{
 8000618:	b538      	push	{r3, r4, r5, lr}
  console_init();
 800061a:	f000 f87f 	bl	800071c <console_init>
  systime_init();
 800061e:	f000 fd61 	bl	80010e4 <systime_init>
  printf("=== RESET ===\r\n");
 8000622:	481c      	ldr	r0, [pc, #112]	; (8000694 <main+0x7c>)
 8000624:	f001 ff0e 	bl	8002444 <puts>
  leds_init();
 8000628:	f000 f83a 	bl	80006a0 <leds_init>
  leds_on(0);
 800062c:	2000      	movs	r0, #0
 800062e:	f000 f847 	bl	80006c0 <leds_on>
  enet_init();
 8000632:	f000 f93f 	bl	80008b4 <enet_init>
  dmxl_init();
 8000636:	f000 fe73 	bl	8001320 <dmxl_init>
  fan_init();
 800063a:	f001 f8fd 	bl	8001838 <fan_init>
  tactile_init();
 800063e:	f001 f9d1 	bl	80019e4 <tactile_init>
  enc_init();
 8000642:	f001 fd39 	bl	80020b8 <enc_init>
  state_init();
 8000646:	f001 fd6b 	bl	8002120 <state_init>
  printf("init complete; entering main loop.\r\n");
 800064a:	4813      	ldr	r0, [pc, #76]	; (8000698 <main+0x80>)
 800064c:	f001 fefa 	bl	8002444 <puts>
  This function enables IRQ interrupts by clearing the I-bit in the CPSR.
  Can only be executed in Privileged modes.
 */
__attribute__( ( always_inline ) ) __STATIC_INLINE void __enable_irq(void)
{
  __ASM volatile ("cpsie i" : : : "memory");
 8000650:	b662      	cpsie	i
  __enable_irq();
  /*
  dmxl_set_torque_enable(1, 2, 1);
  */
  //printf("entering main loop\r\n");
  fan_on(); // todo: be smarter. probably doesn't need to run all the time.
 8000652:	f001 f901 	bl	8001858 <fan_on>
 8000656:	4c11      	ldr	r4, [pc, #68]	; (800069c <main+0x84>)
  for (uint_fast32_t loop_count = 1; ; loop_count++)
  {
    //if (loop_count % 2000000 == 0)
    {
      g_state.systime = SYSTIME;
 8000658:	f04f 4580 	mov.w	r5, #1073741824	; 0x40000000
 800065c:	e003      	b.n	8000666 <main+0x4e>
      dmxl_poll();
      enet_link_status_t link_status = enet_get_link_status();
      if (link_status == ENET_LINK_UP)
        enet_send_state();
    }
    enet_process_rx_ring();
 800065e:	f000 fc85 	bl	8000f6c <enet_process_rx_ring>
    dmxl_process_rings();
 8000662:	f000 ff13 	bl	800148c <dmxl_process_rings>
  fan_on(); // todo: be smarter. probably doesn't need to run all the time.
  for (uint_fast32_t loop_count = 1; ; loop_count++)
  {
    //if (loop_count % 2000000 == 0)
    {
      g_state.systime = SYSTIME;
 8000666:	6a6b      	ldr	r3, [r5, #36]	; 0x24
 8000668:	6862      	ldr	r2, [r4, #4]
 800066a:	6063      	str	r3, [r4, #4]
      leds_toggle(0);
 800066c:	2000      	movs	r0, #0
 800066e:	f000 f843 	bl	80006f8 <leds_toggle>
      leds_toggle(1);
 8000672:	2001      	movs	r0, #1
 8000674:	f000 f840 	bl	80006f8 <leds_toggle>
#ifdef PRINT_TACTILE_TIMING
      volatile uint32_t t_start = SYSTIME;
#endif
      tactile_poll();
 8000678:	f001 fbd6 	bl	8001e28 <tactile_poll>
#ifdef PRINT_TACTILE_TIMING
      volatile uint32_t tactile_dt = SYSTIME - t_start;
      t_start = SYSTIME;
#endif
      enc_poll();
 800067c:	f001 fcd8 	bl	8002030 <enc_poll>
#ifdef PRINT_TACTILE_TIMING
      volatile uint32_t enc_dt = SYSTIME - t_start;
      printf("tactile_dt: %u  enc_dt: %u\r\n", 
             (unsigned)tactile_dt, (unsigned)enc_dt);
#endif
      dmxl_poll();
 8000680:	f001 f8a0 	bl	80017c4 <dmxl_poll>
      enet_link_status_t link_status = enet_get_link_status();
 8000684:	f000 fba2 	bl	8000dcc <enet_get_link_status>
      if (link_status == ENET_LINK_UP)
 8000688:	2801      	cmp	r0, #1
 800068a:	d1e8      	bne.n	800065e <main+0x46>
        enet_send_state();
 800068c:	f000 fd14 	bl	80010b8 <enet_send_state>
 8000690:	e7e5      	b.n	800065e <main+0x46>
 8000692:	bf00      	nop
 8000694:	08008f38 	.word	0x08008f38
 8000698:	08008f48 	.word	0x08008f48
 800069c:	2000fca0 	.word	0x2000fca0

080006a0 <leds_init>:
#define PORTE_LED0 3
#define PORTE_LED1 4

void leds_init()
{
  RCC->AHB1ENR   |= RCC_AHB1ENR_GPIOEEN;
 80006a0:	4a05      	ldr	r2, [pc, #20]	; (80006b8 <leds_init+0x18>)
  GPIOE->MODER   |= (1 << (PORTE_LED0 * 2)) |
 80006a2:	4b06      	ldr	r3, [pc, #24]	; (80006bc <leds_init+0x1c>)
#define PORTE_LED0 3
#define PORTE_LED1 4

void leds_init()
{
  RCC->AHB1ENR   |= RCC_AHB1ENR_GPIOEEN;
 80006a4:	6b11      	ldr	r1, [r2, #48]	; 0x30
 80006a6:	f041 0110 	orr.w	r1, r1, #16
 80006aa:	6311      	str	r1, [r2, #48]	; 0x30
  GPIOE->MODER   |= (1 << (PORTE_LED0 * 2)) |
 80006ac:	681a      	ldr	r2, [r3, #0]
 80006ae:	f442 72a0 	orr.w	r2, r2, #320	; 0x140
 80006b2:	601a      	str	r2, [r3, #0]
 80006b4:	4770      	bx	lr
 80006b6:	bf00      	nop
 80006b8:	40023800 	.word	0x40023800
 80006bc:	40021000 	.word	0x40021000

080006c0 <leds_on>:
                    (1 << (PORTE_LED1 * 2));
}

void leds_on(uint8_t led)
{
  if (led == 0)
 80006c0:	b130      	cbz	r0, 80006d0 <leds_on+0x10>
    GPIOE->BSRRL = 1 << PORTE_LED0;
  else if (led == 1)
 80006c2:	2801      	cmp	r0, #1
 80006c4:	d000      	beq.n	80006c8 <leds_on+0x8>
 80006c6:	4770      	bx	lr
    GPIOE->BSRRL = 1 << PORTE_LED1;
 80006c8:	4b03      	ldr	r3, [pc, #12]	; (80006d8 <leds_on+0x18>)
 80006ca:	2210      	movs	r2, #16
 80006cc:	831a      	strh	r2, [r3, #24]
 80006ce:	4770      	bx	lr
}

void leds_on(uint8_t led)
{
  if (led == 0)
    GPIOE->BSRRL = 1 << PORTE_LED0;
 80006d0:	4b01      	ldr	r3, [pc, #4]	; (80006d8 <leds_on+0x18>)
 80006d2:	2208      	movs	r2, #8
 80006d4:	831a      	strh	r2, [r3, #24]
 80006d6:	4770      	bx	lr
 80006d8:	40021000 	.word	0x40021000

080006dc <leds_off>:
    GPIOE->BSRRL = 1 << PORTE_LED1;
}

void leds_off(uint8_t led)
{
  if (led == 0)
 80006dc:	b130      	cbz	r0, 80006ec <leds_off+0x10>
    GPIOE->BSRRH = 1 << PORTE_LED0;
  else if (led == 1)
 80006de:	2801      	cmp	r0, #1
 80006e0:	d000      	beq.n	80006e4 <leds_off+0x8>
 80006e2:	4770      	bx	lr
    GPIOE->BSRRH = 1 << PORTE_LED1;
 80006e4:	4b03      	ldr	r3, [pc, #12]	; (80006f4 <leds_off+0x18>)
 80006e6:	2210      	movs	r2, #16
 80006e8:	835a      	strh	r2, [r3, #26]
 80006ea:	4770      	bx	lr
}

void leds_off(uint8_t led)
{
  if (led == 0)
    GPIOE->BSRRH = 1 << PORTE_LED0;
 80006ec:	4b01      	ldr	r3, [pc, #4]	; (80006f4 <leds_off+0x18>)
 80006ee:	2208      	movs	r2, #8
 80006f0:	835a      	strh	r2, [r3, #26]
 80006f2:	4770      	bx	lr
 80006f4:	40021000 	.word	0x40021000

080006f8 <leds_toggle>:
    GPIOE->BSRRH = 1 << PORTE_LED1;
}

void leds_toggle(uint8_t led)
{
  if (led == 0)
 80006f8:	b140      	cbz	r0, 800070c <leds_toggle+0x14>
    GPIOE->ODR ^= 1 << PORTE_LED0;
  else if (led == 1)
 80006fa:	2801      	cmp	r0, #1
 80006fc:	d000      	beq.n	8000700 <leds_toggle+0x8>
 80006fe:	4770      	bx	lr
    GPIOE->ODR ^= 1 << PORTE_LED1;
 8000700:	4b05      	ldr	r3, [pc, #20]	; (8000718 <leds_toggle+0x20>)
 8000702:	695a      	ldr	r2, [r3, #20]
 8000704:	f082 0210 	eor.w	r2, r2, #16
 8000708:	615a      	str	r2, [r3, #20]
 800070a:	4770      	bx	lr
}

void leds_toggle(uint8_t led)
{
  if (led == 0)
    GPIOE->ODR ^= 1 << PORTE_LED0;
 800070c:	4b02      	ldr	r3, [pc, #8]	; (8000718 <leds_toggle+0x20>)
 800070e:	695a      	ldr	r2, [r3, #20]
 8000710:	f082 0208 	eor.w	r2, r2, #8
 8000714:	615a      	str	r2, [r3, #20]
 8000716:	4770      	bx	lr
 8000718:	40021000 	.word	0x40021000

0800071c <console_init>:

static volatile uint8_t s_console_init_complete = 0;

void console_init()
{
  s_console_init_complete = 1;
 800071c:	4815      	ldr	r0, [pc, #84]	; (8000774 <console_init+0x58>)
  RCC->AHB1ENR |= RCC_AHB1ENR_GPIOEEN;
 800071e:	4916      	ldr	r1, [pc, #88]	; (8000778 <console_init+0x5c>)
  RCC->APB1ENR |= RCC_APB1ENR_UART8EN;
  GPIOE->MODER   |= (0x2) << (PORTE_TX * 2);
 8000720:	4a16      	ldr	r2, [pc, #88]	; (800077c <console_init+0x60>)
  GPIOE->AFR[0]  |= (0x8) << (PORTE_TX * 4);
  // RX not used at the moment. TX only used for stdout
  UART8->CR1 &= ~USART_CR1_UE;
 8000722:	4b17      	ldr	r3, [pc, #92]	; (8000780 <console_init+0x64>)
#define PORTE_TX 1

static volatile uint8_t s_console_init_complete = 0;

void console_init()
{
 8000724:	b410      	push	{r4}
  s_console_init_complete = 1;
 8000726:	2401      	movs	r4, #1
 8000728:	7004      	strb	r4, [r0, #0]
  RCC->AHB1ENR |= RCC_AHB1ENR_GPIOEEN;
 800072a:	6b08      	ldr	r0, [r1, #48]	; 0x30
  UART8->CR1 &= ~USART_CR1_UE;
  UART8->CR1 |=  USART_CR1_TE | USART_CR1_RE;
  // we want 1 megabit. do this with mantissa=2 and fraction (sixteenths)=10
  UART8->BRR  = (((uint16_t)2) << 4) | 10;
  UART8->CR1 |=  USART_CR1_UE;
}
 800072c:	f85d 4b04 	ldr.w	r4, [sp], #4
static volatile uint8_t s_console_init_complete = 0;

void console_init()
{
  s_console_init_complete = 1;
  RCC->AHB1ENR |= RCC_AHB1ENR_GPIOEEN;
 8000730:	f040 0010 	orr.w	r0, r0, #16
 8000734:	6308      	str	r0, [r1, #48]	; 0x30
  RCC->APB1ENR |= RCC_APB1ENR_UART8EN;
 8000736:	6c08      	ldr	r0, [r1, #64]	; 0x40
 8000738:	f040 4000 	orr.w	r0, r0, #2147483648	; 0x80000000
 800073c:	6408      	str	r0, [r1, #64]	; 0x40
  GPIOE->MODER   |= (0x2) << (PORTE_TX * 2);
 800073e:	6811      	ldr	r1, [r2, #0]
 8000740:	f041 0108 	orr.w	r1, r1, #8
 8000744:	6011      	str	r1, [r2, #0]
  GPIOE->AFR[0]  |= (0x8) << (PORTE_TX * 4);
 8000746:	6a11      	ldr	r1, [r2, #32]
 8000748:	f041 0180 	orr.w	r1, r1, #128	; 0x80
 800074c:	6211      	str	r1, [r2, #32]
  // RX not used at the moment. TX only used for stdout
  UART8->CR1 &= ~USART_CR1_UE;
 800074e:	899a      	ldrh	r2, [r3, #12]
 8000750:	f422 5200 	bic.w	r2, r2, #8192	; 0x2000
 8000754:	0412      	lsls	r2, r2, #16
 8000756:	0c12      	lsrs	r2, r2, #16
 8000758:	819a      	strh	r2, [r3, #12]
  UART8->CR1 |=  USART_CR1_TE | USART_CR1_RE;
 800075a:	8999      	ldrh	r1, [r3, #12]
 800075c:	b289      	uxth	r1, r1
  // we want 1 megabit. do this with mantissa=2 and fraction (sixteenths)=10
  UART8->BRR  = (((uint16_t)2) << 4) | 10;
 800075e:	222a      	movs	r2, #42	; 0x2a
  RCC->APB1ENR |= RCC_APB1ENR_UART8EN;
  GPIOE->MODER   |= (0x2) << (PORTE_TX * 2);
  GPIOE->AFR[0]  |= (0x8) << (PORTE_TX * 4);
  // RX not used at the moment. TX only used for stdout
  UART8->CR1 &= ~USART_CR1_UE;
  UART8->CR1 |=  USART_CR1_TE | USART_CR1_RE;
 8000760:	f041 010c 	orr.w	r1, r1, #12
 8000764:	8199      	strh	r1, [r3, #12]
  // we want 1 megabit. do this with mantissa=2 and fraction (sixteenths)=10
  UART8->BRR  = (((uint16_t)2) << 4) | 10;
 8000766:	811a      	strh	r2, [r3, #8]
  UART8->CR1 |=  USART_CR1_UE;
 8000768:	899a      	ldrh	r2, [r3, #12]
 800076a:	b292      	uxth	r2, r2
 800076c:	f442 5200 	orr.w	r2, r2, #8192	; 0x2000
 8000770:	819a      	strh	r2, [r3, #12]
}
 8000772:	4770      	bx	lr
 8000774:	2000094c 	.word	0x2000094c
 8000778:	40023800 	.word	0x40023800
 800077c:	40021000 	.word	0x40021000
 8000780:	40007c00 	.word	0x40007c00

08000784 <console_send_block>:

void console_send_block(const uint8_t *buf, uint32_t len)
{
 8000784:	b538      	push	{r3, r4, r5, lr}
  if (!s_console_init_complete)
 8000786:	4b0d      	ldr	r3, [pc, #52]	; (80007bc <console_send_block+0x38>)
 8000788:	781b      	ldrb	r3, [r3, #0]
  UART8->BRR  = (((uint16_t)2) << 4) | 10;
  UART8->CR1 |=  USART_CR1_UE;
}

void console_send_block(const uint8_t *buf, uint32_t len)
{
 800078a:	4605      	mov	r5, r0
 800078c:	460c      	mov	r4, r1
  if (!s_console_init_complete)
 800078e:	b18b      	cbz	r3, 80007b4 <console_send_block+0x30>
    console_init();
  for (uint32_t i = 0; i < len; i++)
 8000790:	b15c      	cbz	r4, 80007aa <console_send_block+0x26>
  {
    while (!(UART8->SR & USART_SR_TXE)) { } // wait for tx buffer to clear
 8000792:	4a0b      	ldr	r2, [pc, #44]	; (80007c0 <console_send_block+0x3c>)
 8000794:	4628      	mov	r0, r5
 8000796:	442c      	add	r4, r5
 8000798:	4611      	mov	r1, r2
 800079a:	8813      	ldrh	r3, [r2, #0]
 800079c:	061d      	lsls	r5, r3, #24
 800079e:	d5fc      	bpl.n	800079a <console_send_block+0x16>
    UART8->DR = buf[i];
 80007a0:	f810 3b01 	ldrb.w	r3, [r0], #1
 80007a4:	808b      	strh	r3, [r1, #4]

void console_send_block(const uint8_t *buf, uint32_t len)
{
  if (!s_console_init_complete)
    console_init();
  for (uint32_t i = 0; i < len; i++)
 80007a6:	42a0      	cmp	r0, r4
 80007a8:	d1f7      	bne.n	800079a <console_send_block+0x16>
  {
    while (!(UART8->SR & USART_SR_TXE)) { } // wait for tx buffer to clear
    UART8->DR = buf[i];
  }
  while (!(UART8->SR & USART_SR_TC)) { } // wait for TX to finish
 80007aa:	4a05      	ldr	r2, [pc, #20]	; (80007c0 <console_send_block+0x3c>)
 80007ac:	8813      	ldrh	r3, [r2, #0]
 80007ae:	065b      	lsls	r3, r3, #25
 80007b0:	d5fc      	bpl.n	80007ac <console_send_block+0x28>
  //for (volatile int i = 0; i < 100000; i++) { } // give usb uart some time...
}
 80007b2:	bd38      	pop	{r3, r4, r5, pc}
}

void console_send_block(const uint8_t *buf, uint32_t len)
{
  if (!s_console_init_complete)
    console_init();
 80007b4:	f7ff ffb2 	bl	800071c <console_init>
 80007b8:	e7ea      	b.n	8000790 <console_send_block+0xc>
 80007ba:	bf00      	nop
 80007bc:	2000094c 	.word	0x2000094c
 80007c0:	40007c00 	.word	0x40007c00

080007c4 <_sbrk>:

caddr_t _sbrk(int incr)
{
  static unsigned char *heap = NULL ;
  unsigned char *prev_heap ;
  if ( heap == NULL )
 80007c4:	4a04      	ldr	r2, [pc, #16]	; (80007d8 <_sbrk+0x14>)
 80007c6:	4905      	ldr	r1, [pc, #20]	; (80007dc <_sbrk+0x18>)
 80007c8:	6813      	ldr	r3, [r2, #0]
 80007ca:	2b00      	cmp	r3, #0
 80007cc:	bf08      	it	eq
 80007ce:	460b      	moveq	r3, r1
    heap = (unsigned char *)&_end ;
  prev_heap = heap;
  heap += incr ;
 80007d0:	4418      	add	r0, r3
 80007d2:	6010      	str	r0, [r2, #0]
  return (caddr_t) prev_heap ;
}
 80007d4:	4618      	mov	r0, r3
 80007d6:	4770      	bx	lr
 80007d8:	20000950 	.word	0x20000950
 80007dc:	20013d70 	.word	0x20013d70

080007e0 <_kill>:

int _kill(__attribute__((unused)) int pid, 
          __attribute__((unused)) int sig) { return -1; }
 80007e0:	f04f 30ff 	mov.w	r0, #4294967295
 80007e4:	4770      	bx	lr
 80007e6:	bf00      	nop

080007e8 <_exit>:
void _exit(__attribute__((unused)) int status) { while (1) {} } // spin...
 80007e8:	e7fe      	b.n	80007e8 <_exit>
 80007ea:	bf00      	nop

080007ec <_getpid>:
int _getpid() { return 1; }
 80007ec:	2001      	movs	r0, #1
 80007ee:	4770      	bx	lr

080007f0 <_write>:

int _write(__attribute__((unused)) int fd, const void *buf, size_t count)
{
 80007f0:	b510      	push	{r4, lr}
  console_send_block((uint8_t *)buf, count);
 80007f2:	4608      	mov	r0, r1
          __attribute__((unused)) int sig) { return -1; }
void _exit(__attribute__((unused)) int status) { while (1) {} } // spin...
int _getpid() { return 1; }

int _write(__attribute__((unused)) int fd, const void *buf, size_t count)
{
 80007f4:	4614      	mov	r4, r2
  console_send_block((uint8_t *)buf, count);
 80007f6:	4611      	mov	r1, r2
 80007f8:	f7ff ffc4 	bl	8000784 <console_send_block>
  return count;
}
 80007fc:	4620      	mov	r0, r4
 80007fe:	bd10      	pop	{r4, pc}

08000800 <_close>:
int _close(__attribute__((unused)) int fd) { return -1; }
 8000800:	f04f 30ff 	mov.w	r0, #4294967295
 8000804:	4770      	bx	lr
 8000806:	bf00      	nop

08000808 <_fstat>:
int _fstat(__attribute__((unused)) int fd, 
           __attribute__((unused)) struct stat *st)
{
  st->st_mode = S_IFCHR;
 8000808:	f44f 5300 	mov.w	r3, #8192	; 0x2000
 800080c:	604b      	str	r3, [r1, #4]
  return 0;
}
 800080e:	2000      	movs	r0, #0
 8000810:	4770      	bx	lr
 8000812:	bf00      	nop

08000814 <_isatty>:
int _isatty(__attribute__((unused)) int fd) { return 1; }
 8000814:	2001      	movs	r0, #1
 8000816:	4770      	bx	lr

08000818 <_lseek>:
off_t _lseek(__attribute__((unused)) int fd, 
             __attribute__((unused)) off_t offset, 
             __attribute__((unused)) int whence) { return 0; }
 8000818:	2000      	movs	r0, #0
 800081a:	4770      	bx	lr

0800081c <_read>:
ssize_t _read(__attribute__((unused)) int fd, 
              __attribute__((unused)) void *buf, 
              __attribute__((unused)) size_t count) { return 0; }
 800081c:	2000      	movs	r0, #0
 800081e:	4770      	bx	lr

08000820 <fputc>:
FILE __stdout;
FILE __stderr;
int fputc(__attribute__((unused)) int ch, __attribute__((unused)) FILE *f)
{
  return 0;
}
 8000820:	2000      	movs	r0, #0
 8000822:	4770      	bx	lr

08000824 <_ttywrch>:
void _ttywrch(__attribute__((unused)) int ch) { }
 8000824:	4770      	bx	lr
 8000826:	bf00      	nop

08000828 <enet_read_phy_reg>:

///////////////////////////////////////////////////////////////////////////

uint16_t enet_read_phy_reg(const uint8_t reg_idx)
{
  while (ETH->MACMIIAR & ETH_MACMIIAR_MB) { } // ensure MII is idle
 8000828:	4909      	ldr	r1, [pc, #36]	; (8000850 <enet_read_phy_reg+0x28>)
 800082a:	690b      	ldr	r3, [r1, #16]
 800082c:	4a08      	ldr	r2, [pc, #32]	; (8000850 <enet_read_phy_reg+0x28>)
 800082e:	07db      	lsls	r3, r3, #31
 8000830:	d4fb      	bmi.n	800082a <enet_read_phy_reg+0x2>
  ETH->MACMIIAR = (ENET_PHY_ADDR << 11) | 
                  ((reg_idx & 0x1f) << 6) |
 8000832:	f000 031f 	and.w	r3, r0, #31
 8000836:	019b      	lsls	r3, r3, #6
                  ETH_MACMIIAR_CR_Div102  | // clock divider
 8000838:	f443 6301 	orr.w	r3, r3, #2064	; 0x810
 800083c:	f043 0301 	orr.w	r3, r3, #1
///////////////////////////////////////////////////////////////////////////

uint16_t enet_read_phy_reg(const uint8_t reg_idx)
{
  while (ETH->MACMIIAR & ETH_MACMIIAR_MB) { } // ensure MII is idle
  ETH->MACMIIAR = (ENET_PHY_ADDR << 11) | 
 8000840:	6113      	str	r3, [r2, #16]
                  ((reg_idx & 0x1f) << 6) |
                  ETH_MACMIIAR_CR_Div102  | // clock divider
                  ETH_MACMIIAR_MB; 
  while (ETH->MACMIIAR & ETH_MACMIIAR_MB) { } // spin waiting for MII to finish
 8000842:	6913      	ldr	r3, [r2, #16]
 8000844:	4902      	ldr	r1, [pc, #8]	; (8000850 <enet_read_phy_reg+0x28>)
 8000846:	07db      	lsls	r3, r3, #31
 8000848:	d4fb      	bmi.n	8000842 <enet_read_phy_reg+0x1a>
  return ETH->MACMIIDR & 0xffff;
 800084a:	6948      	ldr	r0, [r1, #20]
}
 800084c:	b280      	uxth	r0, r0
 800084e:	4770      	bx	lr
 8000850:	40028000 	.word	0x40028000

08000854 <enet_write_phy_reg>:

void enet_write_phy_reg(const uint8_t reg_idx, const uint16_t reg_val)
{
 8000854:	b470      	push	{r4, r5, r6}
  while (ETH->MACMIIAR & ETH_MACMIIAR_MB) { } // ensure MII is idle
 8000856:	4d15      	ldr	r5, [pc, #84]	; (80008ac <enet_write_phy_reg+0x58>)
 8000858:	692b      	ldr	r3, [r5, #16]
 800085a:	4c14      	ldr	r4, [pc, #80]	; (80008ac <enet_write_phy_reg+0x58>)
 800085c:	07de      	lsls	r6, r3, #31
 800085e:	d4fb      	bmi.n	8000858 <enet_write_phy_reg+0x4>
  ETH->MACMIIDR = reg_val; // set the outgoing data word
  ETH->MACMIIAR = (ENET_PHY_ADDR << 11)   |
                  ((reg_idx & 0x1f) << 6) |
 8000860:	f000 061f 	and.w	r6, r0, #31
 8000864:	01b6      	lsls	r6, r6, #6
                  ETH_MACMIIAR_CR_Div102  | // MDC clock divider
                  ETH_MACMIIAR_MW         | // set the write bit
 8000866:	f446 6201 	orr.w	r2, r6, #2064	; 0x810
 800086a:	f042 0203 	orr.w	r2, r2, #3
}

void enet_write_phy_reg(const uint8_t reg_idx, const uint16_t reg_val)
{
  while (ETH->MACMIIAR & ETH_MACMIIAR_MB) { } // ensure MII is idle
  ETH->MACMIIDR = reg_val; // set the outgoing data word
 800086e:	6161      	str	r1, [r4, #20]
  ETH->MACMIIAR = (ENET_PHY_ADDR << 11)   |
                  ((reg_idx & 0x1f) << 6) |
                  ETH_MACMIIAR_CR_Div102  | // MDC clock divider
                  ETH_MACMIIAR_MW         | // set the write bit
                  ETH_MACMIIAR_MB; // start it up
  while (ETH->MACMIIAR & ETH_MACMIIAR_MB) { } // spin waiting for MII to finish
 8000870:	4625      	mov	r5, r4

void enet_write_phy_reg(const uint8_t reg_idx, const uint16_t reg_val)
{
  while (ETH->MACMIIAR & ETH_MACMIIAR_MB) { } // ensure MII is idle
  ETH->MACMIIDR = reg_val; // set the outgoing data word
  ETH->MACMIIAR = (ENET_PHY_ADDR << 11)   |
 8000872:	6122      	str	r2, [r4, #16]
                  ((reg_idx & 0x1f) << 6) |
                  ETH_MACMIIAR_CR_Div102  | // MDC clock divider
                  ETH_MACMIIAR_MW         | // set the write bit
                  ETH_MACMIIAR_MB; // start it up
  while (ETH->MACMIIAR & ETH_MACMIIAR_MB) { } // spin waiting for MII to finish
 8000874:	692b      	ldr	r3, [r5, #16]
 8000876:	07dc      	lsls	r4, r3, #31
 8000878:	d4fc      	bmi.n	8000874 <enet_write_phy_reg+0x20>

///////////////////////////////////////////////////////////////////////////

uint16_t enet_read_phy_reg(const uint8_t reg_idx)
{
  while (ETH->MACMIIAR & ETH_MACMIIAR_MB) { } // ensure MII is idle
 800087a:	4d0c      	ldr	r5, [pc, #48]	; (80008ac <enet_write_phy_reg+0x58>)
 800087c:	692b      	ldr	r3, [r5, #16]
 800087e:	4c0b      	ldr	r4, [pc, #44]	; (80008ac <enet_write_phy_reg+0x58>)
 8000880:	07da      	lsls	r2, r3, #31
 8000882:	d4fb      	bmi.n	800087c <enet_write_phy_reg+0x28>
  ETH->MACMIIAR = (ENET_PHY_ADDR << 11) | 
                  ((reg_idx & 0x1f) << 6) |
                  ETH_MACMIIAR_CR_Div102  | // clock divider
 8000884:	f446 6301 	orr.w	r3, r6, #2064	; 0x810
 8000888:	f043 0301 	orr.w	r3, r3, #1
///////////////////////////////////////////////////////////////////////////

uint16_t enet_read_phy_reg(const uint8_t reg_idx)
{
  while (ETH->MACMIIAR & ETH_MACMIIAR_MB) { } // ensure MII is idle
  ETH->MACMIIAR = (ENET_PHY_ADDR << 11) | 
 800088c:	6123      	str	r3, [r4, #16]
                  ((reg_idx & 0x1f) << 6) |
                  ETH_MACMIIAR_CR_Div102  | // clock divider
                  ETH_MACMIIAR_MB; 
  while (ETH->MACMIIAR & ETH_MACMIIAR_MB) { } // spin waiting for MII to finish
 800088e:	6923      	ldr	r3, [r4, #16]
 8000890:	4d06      	ldr	r5, [pc, #24]	; (80008ac <enet_write_phy_reg+0x58>)
 8000892:	07db      	lsls	r3, r3, #31
 8000894:	d4fb      	bmi.n	800088e <enet_write_phy_reg+0x3a>
  return ETH->MACMIIDR & 0xffff;
 8000896:	696b      	ldr	r3, [r5, #20]
                  ETH_MACMIIAR_CR_Div102  | // MDC clock divider
                  ETH_MACMIIAR_MW         | // set the write bit
                  ETH_MACMIIAR_MB; // start it up
  while (ETH->MACMIIAR & ETH_MACMIIAR_MB) { } // spin waiting for MII to finish
  uint16_t readback_val = enet_read_phy_reg(reg_idx);
  if (readback_val != reg_val)
 8000898:	b29b      	uxth	r3, r3
 800089a:	4299      	cmp	r1, r3
 800089c:	d004      	beq.n	80008a8 <enet_write_phy_reg+0x54>
  {
    printf("woah there. tried to write 0x%04x to reg %02d but it read back %04x\r\n",
 800089e:	4602      	mov	r2, r0
           reg_val, reg_idx, readback_val);
  }
}
 80008a0:	bc70      	pop	{r4, r5, r6}
                  ETH_MACMIIAR_MB; // start it up
  while (ETH->MACMIIAR & ETH_MACMIIAR_MB) { } // spin waiting for MII to finish
  uint16_t readback_val = enet_read_phy_reg(reg_idx);
  if (readback_val != reg_val)
  {
    printf("woah there. tried to write 0x%04x to reg %02d but it read back %04x\r\n",
 80008a2:	4803      	ldr	r0, [pc, #12]	; (80008b0 <enet_write_phy_reg+0x5c>)
 80008a4:	f001 bd8c 	b.w	80023c0 <printf>
           reg_val, reg_idx, readback_val);
  }
}
 80008a8:	bc70      	pop	{r4, r5, r6}
 80008aa:	4770      	bx	lr
 80008ac:	40028000 	.word	0x40028000
 80008b0:	08008f6c 	.word	0x08008f6c

080008b4 <enet_init>:

void enet_init()
{
 80008b4:	e92d 43f0 	stmdb	sp!, {r4, r5, r6, r7, r8, r9, lr}
  printf("enet_init()\r\n");
 80008b8:	48a1      	ldr	r0, [pc, #644]	; (8000b40 <enet_init+0x28c>)
           reg_val, reg_idx, readback_val);
  }
}

void enet_init()
{
 80008ba:	b08f      	sub	sp, #60	; 0x3c
  printf("enet_init()\r\n");
 80008bc:	f001 fdc2 	bl	8002444 <puts>
  // set up the pins on port a
  RCC->AHB1ENR |= RCC_AHB1ENR_GPIOAEN     |  // and all the i/o ports we 
 80008c0:	4aa0      	ldr	r2, [pc, #640]	; (8000b44 <enet_init+0x290>)
                  RCC_AHB1ENR_GPIOBEN     |  // will be using to talk to
                  RCC_AHB1ENR_GPIOCEN;       // the ethernet PHY

  GPIOA->MODER |= (2 << (PORTA_ETH_REFCLK * 2)) |
 80008c2:	48a1      	ldr	r0, [pc, #644]	; (8000b48 <enet_init+0x294>)

void enet_init()
{
  printf("enet_init()\r\n");
  // set up the pins on port a
  RCC->AHB1ENR |= RCC_AHB1ENR_GPIOAEN     |  // and all the i/o ports we 
 80008c4:	6b14      	ldr	r4, [r2, #48]	; 0x30
  GPIOA->AFR[0] |= (11 << (PORTA_ETH_REFCLK * 4)) |
                   (11 << (PORTA_ETH_MDIO   * 4)) |
                   (11 << (PORTA_ETH_CRSDV  * 4));

  // set up the ethernet pins on port b
  GPIOB->MODER |= (2 << (PORTB_ETH_TXEN * 2)) |
 80008c6:	4ba1      	ldr	r3, [pc, #644]	; (8000b4c <enet_init+0x298>)
                    (3 << (PORTB_ETH_TXD0 * 2)) |
                    (3 << (PORTB_ETH_TXD1 * 2)); // make the tx pins go fast
  GPIOB->MODER |= (1 << (PORTB_PHY_RESET * 2)); // reset = gpio output pin

  // set up the ethernet pins on port c
  GPIOC->MODER  |= ( 2 << (PORTC_ETH_MDC  * 2)) |
 80008c8:	49a1      	ldr	r1, [pc, #644]	; (8000b50 <enet_init+0x29c>)

void enet_init()
{
  printf("enet_init()\r\n");
  // set up the pins on port a
  RCC->AHB1ENR |= RCC_AHB1ENR_GPIOAEN     |  // and all the i/o ports we 
 80008ca:	f044 0407 	orr.w	r4, r4, #7
 80008ce:	6314      	str	r4, [r2, #48]	; 0x30
                  RCC_AHB1ENR_GPIOBEN     |  // will be using to talk to
                  RCC_AHB1ENR_GPIOCEN;       // the ethernet PHY

  GPIOA->MODER |= (2 << (PORTA_ETH_REFCLK * 2)) |
 80008d0:	6804      	ldr	r4, [r0, #0]
 80008d2:	f444 4400 	orr.w	r4, r4, #32768	; 0x8000
 80008d6:	f044 0428 	orr.w	r4, r4, #40	; 0x28
 80008da:	6004      	str	r4, [r0, #0]
                  (2 << (PORTA_ETH_MDIO   * 2)) |
                  (2 << (PORTA_ETH_CRSDV  * 2)); // set these guys as AF pins
  GPIOA->AFR[0] |= (11 << (PORTA_ETH_REFCLK * 4)) |
 80008dc:	6a04      	ldr	r4, [r0, #32]
 80008de:	f044 4430 	orr.w	r4, r4, #2952790016	; 0xb0000000
 80008e2:	f444 643b 	orr.w	r4, r4, #2992	; 0xbb0
 80008e6:	6204      	str	r4, [r0, #32]
                   (11 << (PORTA_ETH_MDIO   * 4)) |
                   (11 << (PORTA_ETH_CRSDV  * 4));

  // set up the ethernet pins on port b
  GPIOB->MODER |= (2 << (PORTB_ETH_TXEN * 2)) |
 80008e8:	6818      	ldr	r0, [r3, #0]
 80008ea:	f040 6028 	orr.w	r0, r0, #176160768	; 0xa800000
 80008ee:	6018      	str	r0, [r3, #0]
                  (2 << (PORTB_ETH_TXD0 * 2)) |
                  (2 << (PORTB_ETH_TXD1 * 2));
  GPIOB->AFR[1] |= (11 << ((PORTB_ETH_TXEN - 8) * 4)) |
 80008f0:	6a58      	ldr	r0, [r3, #36]	; 0x24
 80008f2:	f440 003b 	orr.w	r0, r0, #12255232	; 0xbb0000
 80008f6:	f440 4030 	orr.w	r0, r0, #45056	; 0xb000
 80008fa:	6258      	str	r0, [r3, #36]	; 0x24
                   (11 << ((PORTB_ETH_TXD0 - 8) * 4)) |
                   (11 << ((PORTB_ETH_TXD1 - 8) * 4));
  GPIOB->OSPEEDR |= (3 << (PORTB_ETH_TXEN * 2)) |
 80008fc:	6898      	ldr	r0, [r3, #8]
 80008fe:	f040 607c 	orr.w	r0, r0, #264241152	; 0xfc00000
 8000902:	6098      	str	r0, [r3, #8]
                    (3 << (PORTB_ETH_TXD0 * 2)) |
                    (3 << (PORTB_ETH_TXD1 * 2)); // make the tx pins go fast
  GPIOB->MODER |= (1 << (PORTB_PHY_RESET * 2)); // reset = gpio output pin
 8000904:	6818      	ldr	r0, [r3, #0]
 8000906:	f040 5080 	orr.w	r0, r0, #268435456	; 0x10000000
 800090a:	6018      	str	r0, [r3, #0]

  // set up the ethernet pins on port c
  GPIOC->MODER  |= ( 2 << (PORTC_ETH_MDC  * 2)) |
 800090c:	680b      	ldr	r3, [r1, #0]
 800090e:	f443 6320 	orr.w	r3, r3, #2560	; 0xa00
 8000912:	f043 0308 	orr.w	r3, r3, #8
 8000916:	600b      	str	r3, [r1, #0]
                   ( 2 << (PORTC_ETH_RXD0 * 2)) |
                   ( 2 << (PORTC_ETH_RXD1 * 2));
  GPIOC->AFR[0] |= (11 << (PORTC_ETH_MDC  * 4)) |
 8000918:	6a0b      	ldr	r3, [r1, #32]
 800091a:	f443 033b 	orr.w	r3, r3, #12255232	; 0xbb0000
 800091e:	f043 03b0 	orr.w	r3, r3, #176	; 0xb0
 8000922:	620b      	str	r3, [r1, #32]
                   (11 << (PORTC_ETH_RXD0 * 4)) |
                   (11 << (PORTC_ETH_RXD1 * 4));

  RCC->APB2ENR |= RCC_APB2ENR_SYSCFGEN; // enable the sysconfig block
 8000924:	6c53      	ldr	r3, [r2, #68]	; 0x44
 8000926:	f443 4380 	orr.w	r3, r3, #16384	; 0x4000
 800092a:	6453      	str	r3, [r2, #68]	; 0x44
  RCC->AHB1RSTR |= RCC_AHB1RSTR_ETHMACRST;
 800092c:	6911      	ldr	r1, [r2, #16]
  for (volatile int i = 0; i < 1000; i++) { } // wait for sysconfig to come up
 800092e:	2300      	movs	r3, #0
  GPIOC->AFR[0] |= (11 << (PORTC_ETH_MDC  * 4)) |
                   (11 << (PORTC_ETH_RXD0 * 4)) |
                   (11 << (PORTC_ETH_RXD1 * 4));

  RCC->APB2ENR |= RCC_APB2ENR_SYSCFGEN; // enable the sysconfig block
  RCC->AHB1RSTR |= RCC_AHB1RSTR_ETHMACRST;
 8000930:	f041 7100 	orr.w	r1, r1, #33554432	; 0x2000000
 8000934:	6111      	str	r1, [r2, #16]
  for (volatile int i = 0; i < 1000; i++) { } // wait for sysconfig to come up
 8000936:	9301      	str	r3, [sp, #4]
 8000938:	9b01      	ldr	r3, [sp, #4]
 800093a:	f5b3 7f7a 	cmp.w	r3, #1000	; 0x3e8
 800093e:	da06      	bge.n	800094e <enet_init+0x9a>
 8000940:	9b01      	ldr	r3, [sp, #4]
 8000942:	3301      	adds	r3, #1
 8000944:	9301      	str	r3, [sp, #4]
 8000946:	9b01      	ldr	r3, [sp, #4]
 8000948:	f5b3 7f7a 	cmp.w	r3, #1000	; 0x3e8
 800094c:	dbf8      	blt.n	8000940 <enet_init+0x8c>
  // hold the MAC in reset while we set it to RMII mode
  for (volatile int i = 0; i < 1000; i++) { } // wait for sysconfig to come up
 800094e:	2300      	movs	r3, #0
 8000950:	9302      	str	r3, [sp, #8]
 8000952:	9b02      	ldr	r3, [sp, #8]
 8000954:	f5b3 7f7a 	cmp.w	r3, #1000	; 0x3e8
 8000958:	da06      	bge.n	8000968 <enet_init+0xb4>
 800095a:	9b02      	ldr	r3, [sp, #8]
 800095c:	3301      	adds	r3, #1
 800095e:	9302      	str	r3, [sp, #8]
 8000960:	9b02      	ldr	r3, [sp, #8]
 8000962:	f5b3 7f7a 	cmp.w	r3, #1000	; 0x3e8
 8000966:	dbf8      	blt.n	800095a <enet_init+0xa6>
  SYSCFG->PMC |= SYSCFG_PMC_MII_RMII_SEL; // set the MAC in RMII mode  
 8000968:	4b7a      	ldr	r3, [pc, #488]	; (8000b54 <enet_init+0x2a0>)
  for (volatile int i = 0; i < 100000; i++) { } // wait for sysconfig to come up
 800096a:	4a7b      	ldr	r2, [pc, #492]	; (8000b58 <enet_init+0x2a4>)
  RCC->APB2ENR |= RCC_APB2ENR_SYSCFGEN; // enable the sysconfig block
  RCC->AHB1RSTR |= RCC_AHB1RSTR_ETHMACRST;
  for (volatile int i = 0; i < 1000; i++) { } // wait for sysconfig to come up
  // hold the MAC in reset while we set it to RMII mode
  for (volatile int i = 0; i < 1000; i++) { } // wait for sysconfig to come up
  SYSCFG->PMC |= SYSCFG_PMC_MII_RMII_SEL; // set the MAC in RMII mode  
 800096c:	6858      	ldr	r0, [r3, #4]
  for (volatile int i = 0; i < 100000; i++) { } // wait for sysconfig to come up
 800096e:	2100      	movs	r1, #0
  RCC->APB2ENR |= RCC_APB2ENR_SYSCFGEN; // enable the sysconfig block
  RCC->AHB1RSTR |= RCC_AHB1RSTR_ETHMACRST;
  for (volatile int i = 0; i < 1000; i++) { } // wait for sysconfig to come up
  // hold the MAC in reset while we set it to RMII mode
  for (volatile int i = 0; i < 1000; i++) { } // wait for sysconfig to come up
  SYSCFG->PMC |= SYSCFG_PMC_MII_RMII_SEL; // set the MAC in RMII mode  
 8000970:	f440 0000 	orr.w	r0, r0, #8388608	; 0x800000
 8000974:	6058      	str	r0, [r3, #4]
  for (volatile int i = 0; i < 100000; i++) { } // wait for sysconfig to come up
 8000976:	9103      	str	r1, [sp, #12]
 8000978:	9b03      	ldr	r3, [sp, #12]
 800097a:	4293      	cmp	r3, r2
 800097c:	dc05      	bgt.n	800098a <enet_init+0xd6>
 800097e:	9b03      	ldr	r3, [sp, #12]
 8000980:	3301      	adds	r3, #1
 8000982:	9303      	str	r3, [sp, #12]
 8000984:	9b03      	ldr	r3, [sp, #12]
 8000986:	4293      	cmp	r3, r2
 8000988:	ddf9      	ble.n	800097e <enet_init+0xca>
  RCC->AHB1ENR |= RCC_AHB1ENR_ETHMACRXEN  |
 800098a:	4b6e      	ldr	r3, [pc, #440]	; (8000b44 <enet_init+0x290>)
                  RCC_AHB1ENR_ETHMACTXEN  |
                  RCC_AHB1ENR_ETHMACEN    ;  // turn on ur ethernet plz
  for (volatile int i = 0; i < 100000; i++) { } // wait 
 800098c:	4a72      	ldr	r2, [pc, #456]	; (8000b58 <enet_init+0x2a4>)
  for (volatile int i = 0; i < 1000; i++) { } // wait for sysconfig to come up
  // hold the MAC in reset while we set it to RMII mode
  for (volatile int i = 0; i < 1000; i++) { } // wait for sysconfig to come up
  SYSCFG->PMC |= SYSCFG_PMC_MII_RMII_SEL; // set the MAC in RMII mode  
  for (volatile int i = 0; i < 100000; i++) { } // wait for sysconfig to come up
  RCC->AHB1ENR |= RCC_AHB1ENR_ETHMACRXEN  |
 800098e:	6b18      	ldr	r0, [r3, #48]	; 0x30
                  RCC_AHB1ENR_ETHMACTXEN  |
                  RCC_AHB1ENR_ETHMACEN    ;  // turn on ur ethernet plz
  for (volatile int i = 0; i < 100000; i++) { } // wait 
 8000990:	2100      	movs	r1, #0
  for (volatile int i = 0; i < 1000; i++) { } // wait for sysconfig to come up
  // hold the MAC in reset while we set it to RMII mode
  for (volatile int i = 0; i < 1000; i++) { } // wait for sysconfig to come up
  SYSCFG->PMC |= SYSCFG_PMC_MII_RMII_SEL; // set the MAC in RMII mode  
  for (volatile int i = 0; i < 100000; i++) { } // wait for sysconfig to come up
  RCC->AHB1ENR |= RCC_AHB1ENR_ETHMACRXEN  |
 8000992:	f040 6060 	orr.w	r0, r0, #234881024	; 0xe000000
 8000996:	6318      	str	r0, [r3, #48]	; 0x30
                  RCC_AHB1ENR_ETHMACTXEN  |
                  RCC_AHB1ENR_ETHMACEN    ;  // turn on ur ethernet plz
  for (volatile int i = 0; i < 100000; i++) { } // wait 
 8000998:	9104      	str	r1, [sp, #16]
 800099a:	9b04      	ldr	r3, [sp, #16]
 800099c:	4293      	cmp	r3, r2
 800099e:	dc05      	bgt.n	80009ac <enet_init+0xf8>
 80009a0:	9b04      	ldr	r3, [sp, #16]
 80009a2:	3301      	adds	r3, #1
 80009a4:	9304      	str	r3, [sp, #16]
 80009a6:	9b04      	ldr	r3, [sp, #16]
 80009a8:	4293      	cmp	r3, r2
 80009aa:	ddf9      	ble.n	80009a0 <enet_init+0xec>
  RCC->AHB1RSTR &= ~RCC_AHB1RSTR_ETHMACRST; // release MAC reset
 80009ac:	4b65      	ldr	r3, [pc, #404]	; (8000b44 <enet_init+0x290>)
  for (volatile int i = 0; i < 100000; i++) { } // wait 
 80009ae:	4a6a      	ldr	r2, [pc, #424]	; (8000b58 <enet_init+0x2a4>)
  for (volatile int i = 0; i < 100000; i++) { } // wait for sysconfig to come up
  RCC->AHB1ENR |= RCC_AHB1ENR_ETHMACRXEN  |
                  RCC_AHB1ENR_ETHMACTXEN  |
                  RCC_AHB1ENR_ETHMACEN    ;  // turn on ur ethernet plz
  for (volatile int i = 0; i < 100000; i++) { } // wait 
  RCC->AHB1RSTR &= ~RCC_AHB1RSTR_ETHMACRST; // release MAC reset
 80009b0:	6918      	ldr	r0, [r3, #16]
  for (volatile int i = 0; i < 100000; i++) { } // wait 
 80009b2:	2100      	movs	r1, #0
  for (volatile int i = 0; i < 100000; i++) { } // wait for sysconfig to come up
  RCC->AHB1ENR |= RCC_AHB1ENR_ETHMACRXEN  |
                  RCC_AHB1ENR_ETHMACTXEN  |
                  RCC_AHB1ENR_ETHMACEN    ;  // turn on ur ethernet plz
  for (volatile int i = 0; i < 100000; i++) { } // wait 
  RCC->AHB1RSTR &= ~RCC_AHB1RSTR_ETHMACRST; // release MAC reset
 80009b4:	f020 7000 	bic.w	r0, r0, #33554432	; 0x2000000
 80009b8:	6118      	str	r0, [r3, #16]
  for (volatile int i = 0; i < 100000; i++) { } // wait 
 80009ba:	9105      	str	r1, [sp, #20]
 80009bc:	9b05      	ldr	r3, [sp, #20]
 80009be:	4293      	cmp	r3, r2
 80009c0:	dc05      	bgt.n	80009ce <enet_init+0x11a>
 80009c2:	9b05      	ldr	r3, [sp, #20]
 80009c4:	3301      	adds	r3, #1
 80009c6:	9305      	str	r3, [sp, #20]
 80009c8:	9b05      	ldr	r3, [sp, #20]
 80009ca:	4293      	cmp	r3, r2
 80009cc:	ddf9      	ble.n	80009c2 <enet_init+0x10e>
  RCC->AHB1RSTR |= RCC_AHB1RSTR_ETHMACRST;
 80009ce:	4b5d      	ldr	r3, [pc, #372]	; (8000b44 <enet_init+0x290>)
  for (volatile int i = 0; i < 100000; i++) { } // wait 
 80009d0:	4a61      	ldr	r2, [pc, #388]	; (8000b58 <enet_init+0x2a4>)
                  RCC_AHB1ENR_ETHMACTXEN  |
                  RCC_AHB1ENR_ETHMACEN    ;  // turn on ur ethernet plz
  for (volatile int i = 0; i < 100000; i++) { } // wait 
  RCC->AHB1RSTR &= ~RCC_AHB1RSTR_ETHMACRST; // release MAC reset
  for (volatile int i = 0; i < 100000; i++) { } // wait 
  RCC->AHB1RSTR |= RCC_AHB1RSTR_ETHMACRST;
 80009d2:	6918      	ldr	r0, [r3, #16]
  for (volatile int i = 0; i < 100000; i++) { } // wait 
 80009d4:	2100      	movs	r1, #0
                  RCC_AHB1ENR_ETHMACTXEN  |
                  RCC_AHB1ENR_ETHMACEN    ;  // turn on ur ethernet plz
  for (volatile int i = 0; i < 100000; i++) { } // wait 
  RCC->AHB1RSTR &= ~RCC_AHB1RSTR_ETHMACRST; // release MAC reset
  for (volatile int i = 0; i < 100000; i++) { } // wait 
  RCC->AHB1RSTR |= RCC_AHB1RSTR_ETHMACRST;
 80009d6:	f040 7000 	orr.w	r0, r0, #33554432	; 0x2000000
 80009da:	6118      	str	r0, [r3, #16]
  for (volatile int i = 0; i < 100000; i++) { } // wait 
 80009dc:	9106      	str	r1, [sp, #24]
 80009de:	9b06      	ldr	r3, [sp, #24]
 80009e0:	4293      	cmp	r3, r2
 80009e2:	dc05      	bgt.n	80009f0 <enet_init+0x13c>
 80009e4:	9b06      	ldr	r3, [sp, #24]
 80009e6:	3301      	adds	r3, #1
 80009e8:	9306      	str	r3, [sp, #24]
 80009ea:	9b06      	ldr	r3, [sp, #24]
 80009ec:	4293      	cmp	r3, r2
 80009ee:	ddf9      	ble.n	80009e4 <enet_init+0x130>
  RCC->AHB1RSTR &= ~RCC_AHB1RSTR_ETHMACRST; // release MAC reset
 80009f0:	4b54      	ldr	r3, [pc, #336]	; (8000b44 <enet_init+0x290>)
  for (volatile int i = 0; i < 100000; i++) { } // wait for sysconfig ... (?)
 80009f2:	4a59      	ldr	r2, [pc, #356]	; (8000b58 <enet_init+0x2a4>)
  for (volatile int i = 0; i < 100000; i++) { } // wait 
  RCC->AHB1RSTR &= ~RCC_AHB1RSTR_ETHMACRST; // release MAC reset
  for (volatile int i = 0; i < 100000; i++) { } // wait 
  RCC->AHB1RSTR |= RCC_AHB1RSTR_ETHMACRST;
  for (volatile int i = 0; i < 100000; i++) { } // wait 
  RCC->AHB1RSTR &= ~RCC_AHB1RSTR_ETHMACRST; // release MAC reset
 80009f4:	6918      	ldr	r0, [r3, #16]
  for (volatile int i = 0; i < 100000; i++) { } // wait for sysconfig ... (?)
 80009f6:	2100      	movs	r1, #0
  for (volatile int i = 0; i < 100000; i++) { } // wait 
  RCC->AHB1RSTR &= ~RCC_AHB1RSTR_ETHMACRST; // release MAC reset
  for (volatile int i = 0; i < 100000; i++) { } // wait 
  RCC->AHB1RSTR |= RCC_AHB1RSTR_ETHMACRST;
  for (volatile int i = 0; i < 100000; i++) { } // wait 
  RCC->AHB1RSTR &= ~RCC_AHB1RSTR_ETHMACRST; // release MAC reset
 80009f8:	f020 7000 	bic.w	r0, r0, #33554432	; 0x2000000
 80009fc:	6118      	str	r0, [r3, #16]
  for (volatile int i = 0; i < 100000; i++) { } // wait for sysconfig ... (?)
 80009fe:	9107      	str	r1, [sp, #28]
 8000a00:	9b07      	ldr	r3, [sp, #28]
 8000a02:	4293      	cmp	r3, r2
 8000a04:	dc05      	bgt.n	8000a12 <enet_init+0x15e>
 8000a06:	9b07      	ldr	r3, [sp, #28]
 8000a08:	3301      	adds	r3, #1
 8000a0a:	9307      	str	r3, [sp, #28]
 8000a0c:	9b07      	ldr	r3, [sp, #28]
 8000a0e:	4293      	cmp	r3, r2
 8000a10:	ddf9      	ble.n	8000a06 <enet_init+0x152>

  ETH->DMABMR |= ETH_DMABMR_SR;
 8000a12:	4b52      	ldr	r3, [pc, #328]	; (8000b5c <enet_init+0x2a8>)
  for (volatile uint32_t i = 0; i < 100000; i++) { } 
 8000a14:	4a50      	ldr	r2, [pc, #320]	; (8000b58 <enet_init+0x2a4>)
  RCC->AHB1RSTR |= RCC_AHB1RSTR_ETHMACRST;
  for (volatile int i = 0; i < 100000; i++) { } // wait 
  RCC->AHB1RSTR &= ~RCC_AHB1RSTR_ETHMACRST; // release MAC reset
  for (volatile int i = 0; i < 100000; i++) { } // wait for sysconfig ... (?)

  ETH->DMABMR |= ETH_DMABMR_SR;
 8000a16:	6818      	ldr	r0, [r3, #0]
  for (volatile uint32_t i = 0; i < 100000; i++) { } 
 8000a18:	2100      	movs	r1, #0
  RCC->AHB1RSTR |= RCC_AHB1RSTR_ETHMACRST;
  for (volatile int i = 0; i < 100000; i++) { } // wait 
  RCC->AHB1RSTR &= ~RCC_AHB1RSTR_ETHMACRST; // release MAC reset
  for (volatile int i = 0; i < 100000; i++) { } // wait for sysconfig ... (?)

  ETH->DMABMR |= ETH_DMABMR_SR;
 8000a1a:	f040 0001 	orr.w	r0, r0, #1
 8000a1e:	6018      	str	r0, [r3, #0]
  for (volatile uint32_t i = 0; i < 100000; i++) { } 
 8000a20:	9108      	str	r1, [sp, #32]
 8000a22:	9b08      	ldr	r3, [sp, #32]
 8000a24:	4293      	cmp	r3, r2
 8000a26:	d805      	bhi.n	8000a34 <enet_init+0x180>
 8000a28:	9b08      	ldr	r3, [sp, #32]
 8000a2a:	3301      	adds	r3, #1
 8000a2c:	9308      	str	r3, [sp, #32]
 8000a2e:	9b08      	ldr	r3, [sp, #32]
 8000a30:	4293      	cmp	r3, r2
 8000a32:	d9f9      	bls.n	8000a28 <enet_init+0x174>
  while (ETH->DMABMR & ETH_DMABMR_SR) { } // wait for it to reset
 8000a34:	4a49      	ldr	r2, [pc, #292]	; (8000b5c <enet_init+0x2a8>)
 8000a36:	6813      	ldr	r3, [r2, #0]
 8000a38:	f013 0301 	ands.w	r3, r3, #1
 8000a3c:	d1fb      	bne.n	8000a36 <enet_init+0x182>
  for (volatile uint32_t i = 0; i < 100000; i++) { } 
 8000a3e:	9309      	str	r3, [sp, #36]	; 0x24
 8000a40:	9b09      	ldr	r3, [sp, #36]	; 0x24
 8000a42:	4a45      	ldr	r2, [pc, #276]	; (8000b58 <enet_init+0x2a4>)
 8000a44:	4293      	cmp	r3, r2
 8000a46:	d805      	bhi.n	8000a54 <enet_init+0x1a0>
 8000a48:	9b09      	ldr	r3, [sp, #36]	; 0x24
 8000a4a:	3301      	adds	r3, #1
 8000a4c:	9309      	str	r3, [sp, #36]	; 0x24
 8000a4e:	9b09      	ldr	r3, [sp, #36]	; 0x24
 8000a50:	4293      	cmp	r3, r2
 8000a52:	d9f9      	bls.n	8000a48 <enet_init+0x194>
  ETH->DMAOMR |= ETH_DMAOMR_FTF; // flush DMA
 8000a54:	4a42      	ldr	r2, [pc, #264]	; (8000b60 <enet_init+0x2ac>)
  while (ETH->DMAOMR & ETH_DMAOMR_FTF) { } // wait for it to flush
 8000a56:	4943      	ldr	r1, [pc, #268]	; (8000b64 <enet_init+0x2b0>)

  ETH->DMABMR |= ETH_DMABMR_SR;
  for (volatile uint32_t i = 0; i < 100000; i++) { } 
  while (ETH->DMABMR & ETH_DMABMR_SR) { } // wait for it to reset
  for (volatile uint32_t i = 0; i < 100000; i++) { } 
  ETH->DMAOMR |= ETH_DMAOMR_FTF; // flush DMA
 8000a58:	f241 0318 	movw	r3, #4120	; 0x1018
 8000a5c:	58d0      	ldr	r0, [r2, r3]
 8000a5e:	f440 1080 	orr.w	r0, r0, #1048576	; 0x100000
 8000a62:	50d0      	str	r0, [r2, r3]
  while (ETH->DMAOMR & ETH_DMAOMR_FTF) { } // wait for it to flush
 8000a64:	680b      	ldr	r3, [r1, #0]
 8000a66:	4a3e      	ldr	r2, [pc, #248]	; (8000b60 <enet_init+0x2ac>)
 8000a68:	f413 1380 	ands.w	r3, r3, #1048576	; 0x100000
 8000a6c:	d1fa      	bne.n	8000a64 <enet_init+0x1b0>

  // now, configure the ethernet peripheral
  ETH->MACCR |= 0x02000000 | // CSTF = strip FCS. why isn't there a symbol ?
 8000a6e:	6811      	ldr	r1, [r2, #0]
                ETH_MACCR_DM   | // full duplex
                ETH_MACCR_IPCO | // ipv4 checksum auto-generation for RX
                ETH_MACCR_APCS;  // automatically remove pad+CRC from frames
  ETH->MACFFR |= ETH_MACFFR_RA; // for now, don't try to filter in hardware
  // generate a decent reset pulse now
  GPIOB->BSRRL = 1 << PORTB_PHY_RESET;
 8000a70:	4c36      	ldr	r4, [pc, #216]	; (8000b4c <enet_init+0x298>)
  for (volatile uint32_t i = 0; i < 100000; i++) { } 
 8000a72:	4839      	ldr	r0, [pc, #228]	; (8000b58 <enet_init+0x2a4>)
  for (volatile uint32_t i = 0; i < 100000; i++) { } 
  ETH->DMAOMR |= ETH_DMAOMR_FTF; // flush DMA
  while (ETH->DMAOMR & ETH_DMAOMR_FTF) { } // wait for it to flush

  // now, configure the ethernet peripheral
  ETH->MACCR |= 0x02000000 | // CSTF = strip FCS. why isn't there a symbol ?
 8000a74:	f041 7100 	orr.w	r1, r1, #33554432	; 0x2000000
 8000a78:	f441 4199 	orr.w	r1, r1, #19584	; 0x4c80
 8000a7c:	6011      	str	r1, [r2, #0]
                ETH_MACCR_FES  | // enable 100 mbit mode
                ETH_MACCR_DM   | // full duplex
                ETH_MACCR_IPCO | // ipv4 checksum auto-generation for RX
                ETH_MACCR_APCS;  // automatically remove pad+CRC from frames
  ETH->MACFFR |= ETH_MACFFR_RA; // for now, don't try to filter in hardware
 8000a7e:	6855      	ldr	r5, [r2, #4]
  // generate a decent reset pulse now
  GPIOB->BSRRL = 1 << PORTB_PHY_RESET;
 8000a80:	f44f 4180 	mov.w	r1, #16384	; 0x4000
  ETH->MACCR |= 0x02000000 | // CSTF = strip FCS. why isn't there a symbol ?
                ETH_MACCR_FES  | // enable 100 mbit mode
                ETH_MACCR_DM   | // full duplex
                ETH_MACCR_IPCO | // ipv4 checksum auto-generation for RX
                ETH_MACCR_APCS;  // automatically remove pad+CRC from frames
  ETH->MACFFR |= ETH_MACFFR_RA; // for now, don't try to filter in hardware
 8000a84:	f045 4500 	orr.w	r5, r5, #2147483648	; 0x80000000
 8000a88:	6055      	str	r5, [r2, #4]
  // generate a decent reset pulse now
  GPIOB->BSRRL = 1 << PORTB_PHY_RESET;
 8000a8a:	8321      	strh	r1, [r4, #24]
  for (volatile uint32_t i = 0; i < 100000; i++) { } 
 8000a8c:	930a      	str	r3, [sp, #40]	; 0x28
 8000a8e:	9b0a      	ldr	r3, [sp, #40]	; 0x28
 8000a90:	4283      	cmp	r3, r0
 8000a92:	bf98      	it	ls
 8000a94:	4602      	movls	r2, r0
 8000a96:	d805      	bhi.n	8000aa4 <enet_init+0x1f0>
 8000a98:	9b0a      	ldr	r3, [sp, #40]	; 0x28
 8000a9a:	3301      	adds	r3, #1
 8000a9c:	930a      	str	r3, [sp, #40]	; 0x28
 8000a9e:	9b0a      	ldr	r3, [sp, #40]	; 0x28
 8000aa0:	4293      	cmp	r3, r2
 8000aa2:	d9f9      	bls.n	8000a98 <enet_init+0x1e4>
  GPIOB->BSRRH = 1 << PORTB_PHY_RESET; // assert reset (pull it low)
 8000aa4:	4929      	ldr	r1, [pc, #164]	; (8000b4c <enet_init+0x298>)
  for (volatile uint32_t i = 0; i < 100000; i++) { } // let some time pass
 8000aa6:	4a2c      	ldr	r2, [pc, #176]	; (8000b58 <enet_init+0x2a4>)
 8000aa8:	2300      	movs	r3, #0
                ETH_MACCR_APCS;  // automatically remove pad+CRC from frames
  ETH->MACFFR |= ETH_MACFFR_RA; // for now, don't try to filter in hardware
  // generate a decent reset pulse now
  GPIOB->BSRRL = 1 << PORTB_PHY_RESET;
  for (volatile uint32_t i = 0; i < 100000; i++) { } 
  GPIOB->BSRRH = 1 << PORTB_PHY_RESET; // assert reset (pull it low)
 8000aaa:	f44f 4080 	mov.w	r0, #16384	; 0x4000
 8000aae:	8348      	strh	r0, [r1, #26]
  for (volatile uint32_t i = 0; i < 100000; i++) { } // let some time pass
 8000ab0:	930b      	str	r3, [sp, #44]	; 0x2c
 8000ab2:	9b0b      	ldr	r3, [sp, #44]	; 0x2c
 8000ab4:	4293      	cmp	r3, r2
 8000ab6:	d805      	bhi.n	8000ac4 <enet_init+0x210>
 8000ab8:	9b0b      	ldr	r3, [sp, #44]	; 0x2c
 8000aba:	3301      	adds	r3, #1
 8000abc:	930b      	str	r3, [sp, #44]	; 0x2c
 8000abe:	9b0b      	ldr	r3, [sp, #44]	; 0x2c
 8000ac0:	4293      	cmp	r3, r2
 8000ac2:	d9f9      	bls.n	8000ab8 <enet_init+0x204>
  GPIOB->BSRRL = 1 << PORTB_PHY_RESET; // de-assert reset (pull it high)
 8000ac4:	4921      	ldr	r1, [pc, #132]	; (8000b4c <enet_init+0x298>)
  // todo: only need to wait until registers read back something other
  // than 0xffff . then we don't have to wait as long.
  for (volatile uint32_t i = 0; i < 1000000; i++) { } // let it initialize
 8000ac6:	4a28      	ldr	r2, [pc, #160]	; (8000b68 <enet_init+0x2b4>)
 8000ac8:	2300      	movs	r3, #0
  // generate a decent reset pulse now
  GPIOB->BSRRL = 1 << PORTB_PHY_RESET;
  for (volatile uint32_t i = 0; i < 100000; i++) { } 
  GPIOB->BSRRH = 1 << PORTB_PHY_RESET; // assert reset (pull it low)
  for (volatile uint32_t i = 0; i < 100000; i++) { } // let some time pass
  GPIOB->BSRRL = 1 << PORTB_PHY_RESET; // de-assert reset (pull it high)
 8000aca:	f44f 4080 	mov.w	r0, #16384	; 0x4000
 8000ace:	8308      	strh	r0, [r1, #24]
  // todo: only need to wait until registers read back something other
  // than 0xffff . then we don't have to wait as long.
  for (volatile uint32_t i = 0; i < 1000000; i++) { } // let it initialize
 8000ad0:	930c      	str	r3, [sp, #48]	; 0x30
 8000ad2:	9b0c      	ldr	r3, [sp, #48]	; 0x30
 8000ad4:	4293      	cmp	r3, r2
 8000ad6:	d805      	bhi.n	8000ae4 <enet_init+0x230>
 8000ad8:	9b0c      	ldr	r3, [sp, #48]	; 0x30
 8000ada:	3301      	adds	r3, #1
 8000adc:	930c      	str	r3, [sp, #48]	; 0x30
 8000ade:	9b0c      	ldr	r3, [sp, #48]	; 0x30
 8000ae0:	4293      	cmp	r3, r2
 8000ae2:	d9f9      	bls.n	8000ad8 <enet_init+0x224>
  printf("waiting for PHY to wake up...\r\n");
 8000ae4:	4821      	ldr	r0, [pc, #132]	; (8000b6c <enet_init+0x2b8>)
 8000ae6:	f001 fcad 	bl	8002444 <puts>

///////////////////////////////////////////////////////////////////////////

uint16_t enet_read_phy_reg(const uint8_t reg_idx)
{
  while (ETH->MACMIIAR & ETH_MACMIIAR_MB) { } // ensure MII is idle
 8000aea:	4a1d      	ldr	r2, [pc, #116]	; (8000b60 <enet_init+0x2ac>)
  ETH->MACMIIAR = (ENET_PHY_ADDR << 11) | 
 8000aec:	f640 0511 	movw	r5, #2065	; 0x811

///////////////////////////////////////////////////////////////////////////

uint16_t enet_read_phy_reg(const uint8_t reg_idx)
{
  while (ETH->MACMIIAR & ETH_MACMIIAR_MB) { } // ensure MII is idle
 8000af0:	4611      	mov	r1, r2
  GPIOB->BSRRL = 1 << PORTB_PHY_RESET; // de-assert reset (pull it high)
  // todo: only need to wait until registers read back something other
  // than 0xffff . then we don't have to wait as long.
  for (volatile uint32_t i = 0; i < 1000000; i++) { } // let it initialize
  printf("waiting for PHY to wake up...\r\n");
  while (enet_read_phy_reg(0) == 0xffff) { }
 8000af2:	f64f 74ff 	movw	r4, #65535	; 0xffff

///////////////////////////////////////////////////////////////////////////

uint16_t enet_read_phy_reg(const uint8_t reg_idx)
{
  while (ETH->MACMIIAR & ETH_MACMIIAR_MB) { } // ensure MII is idle
 8000af6:	6913      	ldr	r3, [r2, #16]
 8000af8:	07d8      	lsls	r0, r3, #31
 8000afa:	d4fc      	bmi.n	8000af6 <enet_init+0x242>
  ETH->MACMIIAR = (ENET_PHY_ADDR << 11) | 
 8000afc:	610d      	str	r5, [r1, #16]
                  ((reg_idx & 0x1f) << 6) |
                  ETH_MACMIIAR_CR_Div102  | // clock divider
                  ETH_MACMIIAR_MB; 
  while (ETH->MACMIIAR & ETH_MACMIIAR_MB) { } // spin waiting for MII to finish
 8000afe:	6913      	ldr	r3, [r2, #16]
 8000b00:	f013 0301 	ands.w	r3, r3, #1
 8000b04:	d1fb      	bne.n	8000afe <enet_init+0x24a>
  return ETH->MACMIIDR & 0xffff;
 8000b06:	6948      	ldr	r0, [r1, #20]
  GPIOB->BSRRL = 1 << PORTB_PHY_RESET; // de-assert reset (pull it high)
  // todo: only need to wait until registers read back something other
  // than 0xffff . then we don't have to wait as long.
  for (volatile uint32_t i = 0; i < 1000000; i++) { } // let it initialize
  printf("waiting for PHY to wake up...\r\n");
  while (enet_read_phy_reg(0) == 0xffff) { }
 8000b08:	b280      	uxth	r0, r0
 8000b0a:	42a0      	cmp	r0, r4
 8000b0c:	d0f3      	beq.n	8000af6 <enet_init+0x242>
  for (volatile uint32_t i = 0; i < 1000000; i++) { } // let it initialize
 8000b0e:	930d      	str	r3, [sp, #52]	; 0x34
 8000b10:	9b0d      	ldr	r3, [sp, #52]	; 0x34
 8000b12:	4a15      	ldr	r2, [pc, #84]	; (8000b68 <enet_init+0x2b4>)
 8000b14:	4293      	cmp	r3, r2
 8000b16:	d805      	bhi.n	8000b24 <enet_init+0x270>
 8000b18:	9b0d      	ldr	r3, [sp, #52]	; 0x34
 8000b1a:	3301      	adds	r3, #1
 8000b1c:	930d      	str	r3, [sp, #52]	; 0x34
 8000b1e:	9b0d      	ldr	r3, [sp, #52]	; 0x34
 8000b20:	4293      	cmp	r3, r2
 8000b22:	d9f9      	bls.n	8000b18 <enet_init+0x264>
  printf("done with PHY reset.\r\n");
 8000b24:	4812      	ldr	r0, [pc, #72]	; (8000b70 <enet_init+0x2bc>)

///////////////////////////////////////////////////////////////////////////

uint16_t enet_read_phy_reg(const uint8_t reg_idx)
{
  while (ETH->MACMIIAR & ETH_MACMIIAR_MB) { } // ensure MII is idle
 8000b26:	4c0e      	ldr	r4, [pc, #56]	; (8000b60 <enet_init+0x2ac>)
  // than 0xffff . then we don't have to wait as long.
  for (volatile uint32_t i = 0; i < 1000000; i++) { } // let it initialize
  printf("waiting for PHY to wake up...\r\n");
  while (enet_read_phy_reg(0) == 0xffff) { }
  for (volatile uint32_t i = 0; i < 1000000; i++) { } // let it initialize
  printf("done with PHY reset.\r\n");
 8000b28:	f001 fc8c 	bl	8002444 <puts>
  printf("setting software strap registers...\r\n");
 8000b2c:	4811      	ldr	r0, [pc, #68]	; (8000b74 <enet_init+0x2c0>)
 8000b2e:	f001 fc89 	bl	8002444 <puts>
  enet_write_phy_reg(0x09, 0x7821); // enable auto MDIX,
 8000b32:	2009      	movs	r0, #9
 8000b34:	f647 0121 	movw	r1, #30753	; 0x7821
 8000b38:	f7ff fe8c 	bl	8000854 <enet_write_phy_reg>
                                    // set INT/PWDN to be interrupt output
                                    // enable auto-negotiation
  enet_write_phy_reg(0x09, 0xf821); // exit software-strap mode
 8000b3c:	2009      	movs	r0, #9
 8000b3e:	e01b      	b.n	8000b78 <enet_init+0x2c4>
 8000b40:	08008fb4 	.word	0x08008fb4
 8000b44:	40023800 	.word	0x40023800
 8000b48:	40020000 	.word	0x40020000
 8000b4c:	40020400 	.word	0x40020400
 8000b50:	40020800 	.word	0x40020800
 8000b54:	40013800 	.word	0x40013800
 8000b58:	0001869f 	.word	0x0001869f
 8000b5c:	40029000 	.word	0x40029000
 8000b60:	40028000 	.word	0x40028000
 8000b64:	40029018 	.word	0x40029018
 8000b68:	000f423f 	.word	0x000f423f
 8000b6c:	08008fc4 	.word	0x08008fc4
 8000b70:	08008fe4 	.word	0x08008fe4
 8000b74:	08008ffc 	.word	0x08008ffc
 8000b78:	f64f 0121 	movw	r1, #63521	; 0xf821
 8000b7c:	f7ff fe6a 	bl	8000854 <enet_write_phy_reg>
  enet_write_phy_reg(0x04, 0x0101); // only advertise 100-FD mode
 8000b80:	2004      	movs	r0, #4
 8000b82:	f240 1101 	movw	r1, #257	; 0x101
 8000b86:	f7ff fe65 	bl	8000854 <enet_write_phy_reg>

///////////////////////////////////////////////////////////////////////////

uint16_t enet_read_phy_reg(const uint8_t reg_idx)
{
  while (ETH->MACMIIAR & ETH_MACMIIAR_MB) { } // ensure MII is idle
 8000b8a:	4627      	mov	r7, r4
                                    // enable auto-negotiation
  enet_write_phy_reg(0x09, 0xf821); // exit software-strap mode
  enet_write_phy_reg(0x04, 0x0101); // only advertise 100-FD mode

  // cycle through and read a bunch of PHY registers to make sure it's alive
  for (int i = 0; i < 32; i++)
 8000b8c:	2600      	movs	r6, #0

///////////////////////////////////////////////////////////////////////////

uint16_t enet_read_phy_reg(const uint8_t reg_idx)
{
  while (ETH->MACMIIAR & ETH_MACMIIAR_MB) { } // ensure MII is idle
 8000b8e:	6923      	ldr	r3, [r4, #16]
 8000b90:	07db      	lsls	r3, r3, #31
 8000b92:	d4fc      	bmi.n	8000b8e <enet_init+0x2da>
  ETH->MACMIIAR = (ENET_PHY_ADDR << 11) | 
                  ((reg_idx & 0x1f) << 6) |
 8000b94:	01b3      	lsls	r3, r6, #6
                  ETH_MACMIIAR_CR_Div102  | // clock divider
 8000b96:	f443 6301 	orr.w	r3, r3, #2064	; 0x810
 8000b9a:	f043 0301 	orr.w	r3, r3, #1
///////////////////////////////////////////////////////////////////////////

uint16_t enet_read_phy_reg(const uint8_t reg_idx)
{
  while (ETH->MACMIIAR & ETH_MACMIIAR_MB) { } // ensure MII is idle
  ETH->MACMIIAR = (ENET_PHY_ADDR << 11) | 
 8000b9e:	613b      	str	r3, [r7, #16]
                  ((reg_idx & 0x1f) << 6) |
                  ETH_MACMIIAR_CR_Div102  | // clock divider
                  ETH_MACMIIAR_MB; 
  while (ETH->MACMIIAR & ETH_MACMIIAR_MB) { } // spin waiting for MII to finish
 8000ba0:	6923      	ldr	r3, [r4, #16]
 8000ba2:	f013 0501 	ands.w	r5, r3, #1
 8000ba6:	d1fb      	bne.n	8000ba0 <enet_init+0x2ec>
  return ETH->MACMIIDR & 0xffff;
 8000ba8:	697a      	ldr	r2, [r7, #20]
  enet_write_phy_reg(0x09, 0xf821); // exit software-strap mode
  enet_write_phy_reg(0x04, 0x0101); // only advertise 100-FD mode

  // cycle through and read a bunch of PHY registers to make sure it's alive
  for (int i = 0; i < 32; i++)
    printf("PHY reg %02d = 0x%04x\r\n", i, enet_read_phy_reg(i));
 8000baa:	4845      	ldr	r0, [pc, #276]	; (8000cc0 <enet_init+0x40c>)
 8000bac:	4631      	mov	r1, r6
 8000bae:	b292      	uxth	r2, r2
                                    // enable auto-negotiation
  enet_write_phy_reg(0x09, 0xf821); // exit software-strap mode
  enet_write_phy_reg(0x04, 0x0101); // only advertise 100-FD mode

  // cycle through and read a bunch of PHY registers to make sure it's alive
  for (int i = 0; i < 32; i++)
 8000bb0:	3601      	adds	r6, #1
    printf("PHY reg %02d = 0x%04x\r\n", i, enet_read_phy_reg(i));
 8000bb2:	f001 fc05 	bl	80023c0 <printf>
                                    // enable auto-negotiation
  enet_write_phy_reg(0x09, 0xf821); // exit software-strap mode
  enet_write_phy_reg(0x04, 0x0101); // only advertise 100-FD mode

  // cycle through and read a bunch of PHY registers to make sure it's alive
  for (int i = 0; i < 32; i++)
 8000bb6:	2e20      	cmp	r6, #32
 8000bb8:	d1e9      	bne.n	8000b8e <enet_init+0x2da>

  ////////////////////////////////////////////////////////////////////////
  // set up ethernet TX descriptors
  for (int i = 0; i < ETH_DMA_NTXD; i++)
  {
    g_eth_dma_tx_desc[i].des0 = 0x00100000 | // set address-chained bit
 8000bba:	4b42      	ldr	r3, [pc, #264]	; (8000cc4 <enet_init+0x410>)
                                0x00c00000 ; // set insert-checksum bits
    g_eth_dma_tx_desc[i].des1 = 0;
    g_eth_dma_tx_desc[i].des2 = (uint32_t)&g_eth_dma_tx_buf[i][0]; // pointer to buf
 8000bbc:	4a42      	ldr	r2, [pc, #264]	; (8000cc8 <enet_init+0x414>)

  ////////////////////////////////////////////////////////////////////////
  // set up ethernet TX descriptors
  for (int i = 0; i < ETH_DMA_NTXD; i++)
  {
    g_eth_dma_tx_desc[i].des0 = 0x00100000 | // set address-chained bit
 8000bbe:	f44f 0150 	mov.w	r1, #13631488	; 0xd00000
 8000bc2:	6019      	str	r1, [r3, #0]
 8000bc4:	4688      	mov	r8, r1
                                0x00c00000 ; // set insert-checksum bits
    g_eth_dma_tx_desc[i].des1 = 0;
 8000bc6:	605d      	str	r5, [r3, #4]
    g_eth_dma_tx_desc[i].des2 = (uint32_t)&g_eth_dma_tx_buf[i][0]; // pointer to buf
 8000bc8:	462c      	mov	r4, r5
 8000bca:	f502 6000 	add.w	r0, r2, #2048	; 0x800
 8000bce:	609a      	str	r2, [r3, #8]
 8000bd0:	f103 0110 	add.w	r1, r3, #16
  // set up ethernet TX descriptors
  for (int i = 0; i < ETH_DMA_NTXD; i++)
  {
    g_eth_dma_tx_desc[i].des0 = 0x00100000 | // set address-chained bit
                                0x00c00000 ; // set insert-checksum bits
    g_eth_dma_tx_desc[i].des1 = 0;
 8000bd4:	462f      	mov	r7, r5
    g_eth_dma_tx_desc[i].des2 = (uint32_t)&g_eth_dma_tx_buf[i][0]; // pointer to buf
    if (i < ETH_DMA_NTXD-1)
      g_eth_dma_tx_desc[i].des3 = (uint32_t)&g_eth_dma_tx_desc[i+1]; // chain to next 
 8000bd6:	1c62      	adds	r2, r4, #1

  ////////////////////////////////////////////////////////////////////////
  // set up ethernet TX descriptors
  for (int i = 0; i < ETH_DMA_NTXD; i++)
  {
    g_eth_dma_tx_desc[i].des0 = 0x00100000 | // set address-chained bit
 8000bd8:	0115      	lsls	r5, r2, #4
                                0x00c00000 ; // set insert-checksum bits
    g_eth_dma_tx_desc[i].des1 = 0;
    g_eth_dma_tx_desc[i].des2 = (uint32_t)&g_eth_dma_tx_buf[i][0]; // pointer to buf
    if (i < ETH_DMA_NTXD-1)
      g_eth_dma_tx_desc[i].des3 = (uint32_t)&g_eth_dma_tx_desc[i+1]; // chain to next 
 8000bda:	eb03 1404 	add.w	r4, r3, r4, lsl #4
 8000bde:	f104 0608 	add.w	r6, r4, #8

  ////////////////////////////////////////////////////////////////////////
  // set up ethernet TX descriptors
  for (int i = 0; i < ETH_DMA_NTXD; i++)
  {
    g_eth_dma_tx_desc[i].des0 = 0x00100000 | // set address-chained bit
 8000be2:	195c      	adds	r4, r3, r5
                                0x00c00000 ; // set insert-checksum bits
    g_eth_dma_tx_desc[i].des1 = 0;
    g_eth_dma_tx_desc[i].des2 = (uint32_t)&g_eth_dma_tx_buf[i][0]; // pointer to buf
    if (i < ETH_DMA_NTXD-1)
 8000be4:	2a03      	cmp	r2, #3
      g_eth_dma_tx_desc[i].des3 = (uint32_t)&g_eth_dma_tx_desc[i+1]; // chain to next 
 8000be6:	6071      	str	r1, [r6, #4]
 8000be8:	f8df c0d8 	ldr.w	ip, [pc, #216]	; 8000cc4 <enet_init+0x410>

  ////////////////////////////////////////////////////////////////////////
  // set up ethernet TX descriptors
  for (int i = 0; i < ETH_DMA_NTXD; i++)
  {
    g_eth_dma_tx_desc[i].des0 = 0x00100000 | // set address-chained bit
 8000bec:	f843 8005 	str.w	r8, [r3, r5]
 8000bf0:	f101 0110 	add.w	r1, r1, #16
                                0x00c00000 ; // set insert-checksum bits
    g_eth_dma_tx_desc[i].des1 = 0;
 8000bf4:	6067      	str	r7, [r4, #4]
    g_eth_dma_tx_desc[i].des2 = (uint32_t)&g_eth_dma_tx_buf[i][0]; // pointer to buf
 8000bf6:	60a0      	str	r0, [r4, #8]
 8000bf8:	f500 6000 	add.w	r0, r0, #2048	; 0x800
    if (i < ETH_DMA_NTXD-1)
 8000bfc:	d001      	beq.n	8000c02 <enet_init+0x34e>
  for (int i = 0; i < 32; i++)
    printf("PHY reg %02d = 0x%04x\r\n", i, enet_read_phy_reg(i));

  ////////////////////////////////////////////////////////////////////////
  // set up ethernet TX descriptors
  for (int i = 0; i < ETH_DMA_NTXD; i++)
 8000bfe:	4614      	mov	r4, r2
 8000c00:	e7e9      	b.n	8000bd6 <enet_init+0x322>
  }
  ////////////////////////////////////////////////////////////////////////
  // set up ethernet RX descriptors
  for (int i = 0; i < ETH_DMA_NRXD; i++)
  {
    g_eth_dma_rx_desc[i].des0 = 0x80000000; // set "own" bit = DMA has control
 8000c02:	4a32      	ldr	r2, [pc, #200]	; (8000ccc <enet_init+0x418>)
    g_eth_dma_rx_desc[i].des1 = 0x00004000 | // set the RCH bit = chained addr2
                            ETH_NBUF; // buffer size in addr1
    g_eth_dma_rx_desc[i].des2 = (uint32_t)&g_eth_dma_rx_buf[i][0];
 8000c04:	4832      	ldr	r0, [pc, #200]	; (8000cd0 <enet_init+0x41c>)
    g_eth_dma_tx_desc[i].des1 = 0;
    g_eth_dma_tx_desc[i].des2 = (uint32_t)&g_eth_dma_tx_buf[i][0]; // pointer to buf
    if (i < ETH_DMA_NTXD-1)
      g_eth_dma_tx_desc[i].des3 = (uint32_t)&g_eth_dma_tx_desc[i+1]; // chain to next 
    else
      g_eth_dma_tx_desc[i].des3 = (uint32_t)&g_eth_dma_tx_desc[0]; // loop to first 
 8000c06:	f8cc c03c 	str.w	ip, [ip, #60]	; 0x3c
  }
  ////////////////////////////////////////////////////////////////////////
  // set up ethernet RX descriptors
  for (int i = 0; i < ETH_DMA_NRXD; i++)
  {
    g_eth_dma_rx_desc[i].des0 = 0x80000000; // set "own" bit = DMA has control
 8000c0a:	f04f 4100 	mov.w	r1, #2147483648	; 0x80000000
    g_eth_dma_rx_desc[i].des1 = 0x00004000 | // set the RCH bit = chained addr2
 8000c0e:	f44f 4390 	mov.w	r3, #18432	; 0x4800
  }
  ////////////////////////////////////////////////////////////////////////
  // set up ethernet RX descriptors
  for (int i = 0; i < ETH_DMA_NRXD; i++)
  {
    g_eth_dma_rx_desc[i].des0 = 0x80000000; // set "own" bit = DMA has control
 8000c12:	6011      	str	r1, [r2, #0]
 8000c14:	4689      	mov	r9, r1
    g_eth_dma_rx_desc[i].des1 = 0x00004000 | // set the RCH bit = chained addr2
 8000c16:	6053      	str	r3, [r2, #4]
 8000c18:	4698      	mov	r8, r3
                            ETH_NBUF; // buffer size in addr1
    g_eth_dma_rx_desc[i].des2 = (uint32_t)&g_eth_dma_rx_buf[i][0];
 8000c1a:	6090      	str	r0, [r2, #8]
 8000c1c:	f102 0110 	add.w	r1, r2, #16
 8000c20:	f500 6000 	add.w	r0, r0, #2048	; 0x800
 8000c24:	2400      	movs	r4, #0
 8000c26:	e000      	b.n	8000c2a <enet_init+0x376>
    else
      g_eth_dma_tx_desc[i].des3 = (uint32_t)&g_eth_dma_tx_desc[0]; // loop to first 
  }
  ////////////////////////////////////////////////////////////////////////
  // set up ethernet RX descriptors
  for (int i = 0; i < ETH_DMA_NRXD; i++)
 8000c28:	461c      	mov	r4, r3
    g_eth_dma_rx_desc[i].des0 = 0x80000000; // set "own" bit = DMA has control
    g_eth_dma_rx_desc[i].des1 = 0x00004000 | // set the RCH bit = chained addr2
                            ETH_NBUF; // buffer size in addr1
    g_eth_dma_rx_desc[i].des2 = (uint32_t)&g_eth_dma_rx_buf[i][0];
    if (i < ETH_DMA_NRXD-1)
      g_eth_dma_rx_desc[i].des3 = (uint32_t)&g_eth_dma_rx_desc[i+1];
 8000c2a:	1c63      	adds	r3, r4, #1
  }
  ////////////////////////////////////////////////////////////////////////
  // set up ethernet RX descriptors
  for (int i = 0; i < ETH_DMA_NRXD; i++)
  {
    g_eth_dma_rx_desc[i].des0 = 0x80000000; // set "own" bit = DMA has control
 8000c2c:	011d      	lsls	r5, r3, #4
    g_eth_dma_rx_desc[i].des1 = 0x00004000 | // set the RCH bit = chained addr2
                            ETH_NBUF; // buffer size in addr1
    g_eth_dma_rx_desc[i].des2 = (uint32_t)&g_eth_dma_rx_buf[i][0];
    if (i < ETH_DMA_NRXD-1)
      g_eth_dma_rx_desc[i].des3 = (uint32_t)&g_eth_dma_rx_desc[i+1];
 8000c2e:	eb02 1404 	add.w	r4, r2, r4, lsl #4
 8000c32:	f104 0608 	add.w	r6, r4, #8
  }
  ////////////////////////////////////////////////////////////////////////
  // set up ethernet RX descriptors
  for (int i = 0; i < ETH_DMA_NRXD; i++)
  {
    g_eth_dma_rx_desc[i].des0 = 0x80000000; // set "own" bit = DMA has control
 8000c36:	1954      	adds	r4, r2, r5
    g_eth_dma_rx_desc[i].des1 = 0x00004000 | // set the RCH bit = chained addr2
                            ETH_NBUF; // buffer size in addr1
    g_eth_dma_rx_desc[i].des2 = (uint32_t)&g_eth_dma_rx_buf[i][0];
    if (i < ETH_DMA_NRXD-1)
 8000c38:	2b0f      	cmp	r3, #15
      g_eth_dma_rx_desc[i].des3 = (uint32_t)&g_eth_dma_rx_desc[i+1];
 8000c3a:	6071      	str	r1, [r6, #4]
 8000c3c:	4f23      	ldr	r7, [pc, #140]	; (8000ccc <enet_init+0x418>)
  }
  ////////////////////////////////////////////////////////////////////////
  // set up ethernet RX descriptors
  for (int i = 0; i < ETH_DMA_NRXD; i++)
  {
    g_eth_dma_rx_desc[i].des0 = 0x80000000; // set "own" bit = DMA has control
 8000c3e:	f842 9005 	str.w	r9, [r2, r5]
 8000c42:	f101 0110 	add.w	r1, r1, #16
    g_eth_dma_rx_desc[i].des1 = 0x00004000 | // set the RCH bit = chained addr2
 8000c46:	f8c4 8004 	str.w	r8, [r4, #4]
                            ETH_NBUF; // buffer size in addr1
    g_eth_dma_rx_desc[i].des2 = (uint32_t)&g_eth_dma_rx_buf[i][0];
 8000c4a:	60a0      	str	r0, [r4, #8]
 8000c4c:	f500 6000 	add.w	r0, r0, #2048	; 0x800
    if (i < ETH_DMA_NRXD-1)
 8000c50:	d1ea      	bne.n	8000c28 <enet_init+0x374>
      g_eth_dma_rx_desc[i].des3 = (uint32_t)&g_eth_dma_rx_desc[i+1];
    else
      g_eth_dma_rx_desc[i].des3 = (uint32_t)&g_eth_dma_rx_desc[0];
 8000c52:	2300      	movs	r3, #0
 8000c54:	491f      	ldr	r1, [pc, #124]	; (8000cd4 <enet_init+0x420>)
 8000c56:	4e20      	ldr	r6, [pc, #128]	; (8000cd8 <enet_init+0x424>)
 8000c58:	4d20      	ldr	r5, [pc, #128]	; (8000cdc <enet_init+0x428>)
 8000c5a:	4c21      	ldr	r4, [pc, #132]	; (8000ce0 <enet_init+0x42c>)
 8000c5c:	4821      	ldr	r0, [pc, #132]	; (8000ce4 <enet_init+0x430>)
 8000c5e:	f8c7 70fc 	str.w	r7, [r7, #252]	; 0xfc
  ///////////////////////////////////////////////////////////////////////
  // set up the RAM pool for reception
  for (int i = 0; i < ETH_RAM_RXPOOL_NPTR; i++)
  {
    g_eth_rxpool_start[i] = &g_eth_rxpool[0];
    g_eth_rxpool_len[i] = 0;
 8000c62:	461a      	mov	r2, r3
 8000c64:	f825 2013 	strh.w	r2, [r5, r3, lsl #1]
      g_eth_dma_rx_desc[i].des3 = (uint32_t)&g_eth_dma_rx_desc[0];
  }

  ///////////////////////////////////////////////////////////////////////
  // set up the RAM pool for reception
  for (int i = 0; i < ETH_RAM_RXPOOL_NPTR; i++)
 8000c68:	3301      	adds	r3, #1
 8000c6a:	2b80      	cmp	r3, #128	; 0x80
  {
    g_eth_rxpool_start[i] = &g_eth_rxpool[0];
    g_eth_rxpool_len[i] = 0;
    g_eth_rxpool_ptrs_wpos = 0;
 8000c6c:	8022      	strh	r2, [r4, #0]

  ///////////////////////////////////////////////////////////////////////
  // set up the RAM pool for reception
  for (int i = 0; i < ETH_RAM_RXPOOL_NPTR; i++)
  {
    g_eth_rxpool_start[i] = &g_eth_rxpool[0];
 8000c6e:	f841 6f04 	str.w	r6, [r1, #4]!
    g_eth_rxpool_len[i] = 0;
    g_eth_rxpool_ptrs_wpos = 0;
    g_eth_rxpool_ptrs_rpos = 0;
 8000c72:	8002      	strh	r2, [r0, #0]
      g_eth_dma_rx_desc[i].des3 = (uint32_t)&g_eth_dma_rx_desc[0];
  }

  ///////////////////////////////////////////////////////////////////////
  // set up the RAM pool for reception
  for (int i = 0; i < ETH_RAM_RXPOOL_NPTR; i++)
 8000c74:	d1f6      	bne.n	8000c64 <enet_init+0x3b0>
    g_eth_rxpool_ptrs_rpos = 0;
  }

  ///////////////////////////////////////////////////////////////////////
  // finally, turn on the DMA machinery
  ETH->DMATDLAR = (uint32_t)&g_eth_dma_tx_desc[0]; // point TX DMA to first desc
 8000c76:	4b1c      	ldr	r3, [pc, #112]	; (8000ce8 <enet_init+0x434>)
  /*
  ETH->DMABMR = ETH_DMABMR_AAB | ETH_DMABMR_USP | 
                ETH_DMABMR_RDP_1Beat | ETH_DMABMR_RTPR_1_1 |
                ETH_DMABMR_PBL_1Beat | ETH_DMABMR_EDE;
  */
  ETH->DMAIER = ETH_DMAIER_NISE | ETH_DMAIER_RIE;
 8000c78:	4c1c      	ldr	r4, [pc, #112]	; (8000cec <enet_init+0x438>)
__STATIC_INLINE void NVIC_SetPriority(IRQn_Type IRQn, uint32_t priority)
{
  if(IRQn < 0) {
    SCB->SHP[((uint32_t)(IRQn) & 0xF)-4] = ((priority << (8 - __NVIC_PRIO_BITS)) & 0xff); } /* set Priority for Cortex-M  System Interrupts */
  else {
    NVIC->IP[(uint32_t)(IRQn)] = ((priority << (8 - __NVIC_PRIO_BITS)) & 0xff);    }        /* set Priority for device specific Interrupts  */
 8000c7a:	491d      	ldr	r1, [pc, #116]	; (8000cf0 <enet_init+0x43c>)

  ///////////////////////////////////////////////////////////////////////
  // finally, turn on the DMA machinery
  ETH->DMATDLAR = (uint32_t)&g_eth_dma_tx_desc[0]; // point TX DMA to first desc
  ETH->DMARDLAR = (uint32_t)&g_eth_dma_rx_desc[0]; // point RX DMA to first desc
  ETH->DMAOMR = ETH_DMAOMR_TSF; // enable store-and-forward mode
 8000c7c:	f241 0218 	movw	r2, #4120	; 0x1018
    g_eth_rxpool_ptrs_rpos = 0;
  }

  ///////////////////////////////////////////////////////////////////////
  // finally, turn on the DMA machinery
  ETH->DMATDLAR = (uint32_t)&g_eth_dma_tx_desc[0]; // point TX DMA to first desc
 8000c80:	f241 0810 	movw	r8, #4112	; 0x1010
  ETH->DMARDLAR = (uint32_t)&g_eth_dma_rx_desc[0]; // point RX DMA to first desc
 8000c84:	f241 060c 	movw	r6, #4108	; 0x100c
  /*
  ETH->DMABMR = ETH_DMABMR_AAB | ETH_DMABMR_USP | 
                ETH_DMABMR_RDP_1Beat | ETH_DMABMR_RTPR_1_1 |
                ETH_DMABMR_PBL_1Beat | ETH_DMABMR_EDE;
  */
  ETH->DMAIER = ETH_DMAIER_NISE | ETH_DMAIER_RIE;
 8000c88:	f241 001c 	movw	r0, #4124	; 0x101c

  ///////////////////////////////////////////////////////////////////////
  // finally, turn on the DMA machinery
  ETH->DMATDLAR = (uint32_t)&g_eth_dma_tx_desc[0]; // point TX DMA to first desc
  ETH->DMARDLAR = (uint32_t)&g_eth_dma_rx_desc[0]; // point RX DMA to first desc
  ETH->DMAOMR = ETH_DMAOMR_TSF; // enable store-and-forward mode
 8000c8c:	f44f 1500 	mov.w	r5, #2097152	; 0x200000
    g_eth_rxpool_ptrs_rpos = 0;
  }

  ///////////////////////////////////////////////////////////////////////
  // finally, turn on the DMA machinery
  ETH->DMATDLAR = (uint32_t)&g_eth_dma_tx_desc[0]; // point TX DMA to first desc
 8000c90:	f843 c008 	str.w	ip, [r3, r8]
  ETH->DMARDLAR = (uint32_t)&g_eth_dma_rx_desc[0]; // point RX DMA to first desc
 8000c94:	519f      	str	r7, [r3, r6]
  ETH->DMAOMR = ETH_DMAOMR_TSF; // enable store-and-forward mode
 8000c96:	509d      	str	r5, [r3, r2]
  /*
  ETH->DMABMR = ETH_DMABMR_AAB | ETH_DMABMR_USP | 
                ETH_DMABMR_RDP_1Beat | ETH_DMABMR_RTPR_1_1 |
                ETH_DMABMR_PBL_1Beat | ETH_DMABMR_EDE;
  */
  ETH->DMAIER = ETH_DMAIER_NISE | ETH_DMAIER_RIE;
 8000c98:	501c      	str	r4, [r3, r0]
  ETH->MACCR |= ETH_MACCR_TE | // enable transmitter
 8000c9a:	681d      	ldr	r5, [r3, #0]
 8000c9c:	2430      	movs	r4, #48	; 0x30
 8000c9e:	f045 050c 	orr.w	r5, r5, #12
    \param [in]      IRQn  External interrupt number. Value cannot be negative.
 */
__STATIC_INLINE void NVIC_EnableIRQ(IRQn_Type IRQn)
{
/*  NVIC->ISER[((uint32_t)(IRQn) >> 5)] = (1 << ((uint32_t)(IRQn) & 0x1F));  enable interrupt */
  NVIC->ISER[(uint32_t)((int32_t)IRQn) >> 5] = (uint32_t)(1 << ((uint32_t)((int32_t)IRQn) & (uint32_t)0x1F)); /* enable interrupt */
 8000ca2:	f04f 5000 	mov.w	r0, #536870912	; 0x20000000
 8000ca6:	601d      	str	r5, [r3, #0]
__STATIC_INLINE void NVIC_SetPriority(IRQn_Type IRQn, uint32_t priority)
{
  if(IRQn < 0) {
    SCB->SHP[((uint32_t)(IRQn) & 0xF)-4] = ((priority << (8 - __NVIC_PRIO_BITS)) & 0xff); } /* set Priority for Cortex-M  System Interrupts */
  else {
    NVIC->IP[(uint32_t)(IRQn)] = ((priority << (8 - __NVIC_PRIO_BITS)) & 0xff);    }        /* set Priority for device specific Interrupts  */
 8000ca8:	f881 433d 	strb.w	r4, [r1, #829]	; 0x33d
    \param [in]      IRQn  External interrupt number. Value cannot be negative.
 */
__STATIC_INLINE void NVIC_EnableIRQ(IRQn_Type IRQn)
{
/*  NVIC->ISER[((uint32_t)(IRQn) >> 5)] = (1 << ((uint32_t)(IRQn) & 0x1F));  enable interrupt */
  NVIC->ISER[(uint32_t)((int32_t)IRQn) >> 5] = (uint32_t)(1 << ((uint32_t)((int32_t)IRQn) & (uint32_t)0x1F)); /* enable interrupt */
 8000cac:	6048      	str	r0, [r1, #4]
                ETH_MACCR_RE;  // enable receiver
  NVIC_SetPriority(ETH_IRQn, 3);
  NVIC_EnableIRQ(ETH_IRQn);
  ETH->DMAOMR |= ETH_DMAOMR_ST | ETH_DMAOMR_SR; // enable ethernet DMA tx/rx
 8000cae:	5899      	ldr	r1, [r3, r2]
 8000cb0:	f441 5100 	orr.w	r1, r1, #8192	; 0x2000
 8000cb4:	f041 0102 	orr.w	r1, r1, #2
 8000cb8:	5099      	str	r1, [r3, r2]
}
 8000cba:	b00f      	add	sp, #60	; 0x3c
 8000cbc:	e8bd 83f0 	ldmia.w	sp!, {r4, r5, r6, r7, r8, r9, pc}
 8000cc0:	08009024 	.word	0x08009024
 8000cc4:	20008f38 	.word	0x20008f38
 8000cc8:	2000d380 	.word	0x2000d380
 8000ccc:	20009280 	.word	0x20009280
 8000cd0:	20000f38 	.word	0x20000f38
 8000cd4:	2000907c 	.word	0x2000907c
 8000cd8:	20009380 	.word	0x20009380
 8000cdc:	20008f7c 	.word	0x20008f7c
 8000ce0:	20008f78 	.word	0x20008f78
 8000ce4:	20008f7a 	.word	0x20008f7a
 8000ce8:	40028000 	.word	0x40028000
 8000cec:	00010040 	.word	0x00010040
 8000cf0:	e000e100 	.word	0xe000e100

08000cf4 <eth_vector>:

void eth_vector()
{
 8000cf4:	e92d 4ff0 	stmdb	sp!, {r4, r5, r6, r7, r8, r9, sl, fp, lr}
  volatile uint32_t dmasr = ETH->DMASR;
 8000cf8:	f241 0314 	movw	r3, #4116	; 0x1014
 8000cfc:	4a2c      	ldr	r2, [pc, #176]	; (8000db0 <eth_vector+0xbc>)
  NVIC_EnableIRQ(ETH_IRQn);
  ETH->DMAOMR |= ETH_DMAOMR_ST | ETH_DMAOMR_SR; // enable ethernet DMA tx/rx
}

void eth_vector()
{
 8000cfe:	b083      	sub	sp, #12
  volatile uint32_t dmasr = ETH->DMASR;
 8000d00:	58d1      	ldr	r1, [r2, r3]
 8000d02:	9101      	str	r1, [sp, #4]
  ETH->DMASR = dmasr; // clear pending bits in the status register
 8000d04:	9901      	ldr	r1, [sp, #4]
 8000d06:	50d1      	str	r1, [r2, r3]
  //printf("eth_vector()\r\n");
  if (dmasr & ETH_DMASR_RS)
 8000d08:	9b01      	ldr	r3, [sp, #4]
 8000d0a:	065b      	lsls	r3, r3, #25
 8000d0c:	d548      	bpl.n	8000da0 <eth_vector+0xac>
  {
    // we received one or more frames. spin through and find them...
    while (!(g_eth_dma_rx_next_desc->des0 & 0x80000000))
 8000d0e:	f8df 80b0 	ldr.w	r8, [pc, #176]	; 8000dc0 <eth_vector+0xcc>
 8000d12:	f8d8 4000 	ldr.w	r4, [r8]
 8000d16:	6823      	ldr	r3, [r4, #0]
 8000d18:	2b00      	cmp	r3, #0
 8000d1a:	db41      	blt.n	8000da0 <eth_vector+0xac>
 8000d1c:	4d25      	ldr	r5, [pc, #148]	; (8000db4 <eth_vector+0xc0>)
 8000d1e:	4e26      	ldr	r6, [pc, #152]	; (8000db8 <eth_vector+0xc4>)
 8000d20:	f8df b0a0 	ldr.w	fp, [pc, #160]	; 8000dc4 <eth_vector+0xd0>
 8000d24:	f8df a0a0 	ldr.w	sl, [pc, #160]	; 8000dc8 <eth_vector+0xd4>
    {
      // todo: check all of the error status bits in des0...
      const uint16_t rxn = (g_eth_dma_rx_next_desc->des0 & 0x3fff0000) >> 16;
      // see if this packet will run off the end of the buffer. if so, wrap.
      if (g_eth_rxpool_wpos + rxn >= ETH_RAM_RXPOOL_LEN)
        g_eth_rxpool_wpos = 0;
 8000d28:	f04f 0900 	mov.w	r9, #0
  {
    // we received one or more frames. spin through and find them...
    while (!(g_eth_dma_rx_next_desc->des0 & 0x80000000))
    {
      // todo: check all of the error status bits in des0...
      const uint16_t rxn = (g_eth_dma_rx_next_desc->des0 & 0x3fff0000) >> 16;
 8000d2c:	6823      	ldr	r3, [r4, #0]
      // see if this packet will run off the end of the buffer. if so, wrap.
      if (g_eth_rxpool_wpos + rxn >= ETH_RAM_RXPOOL_LEN)
 8000d2e:	8829      	ldrh	r1, [r5, #0]
  {
    // we received one or more frames. spin through and find them...
    while (!(g_eth_dma_rx_next_desc->des0 & 0x80000000))
    {
      // todo: check all of the error status bits in des0...
      const uint16_t rxn = (g_eth_dma_rx_next_desc->des0 & 0x3fff0000) >> 16;
 8000d30:	f3c3 430d 	ubfx	r3, r3, #16, #14
      // see if this packet will run off the end of the buffer. if so, wrap.
      if (g_eth_rxpool_wpos + rxn >= ETH_RAM_RXPOOL_LEN)
 8000d34:	fa13 f181 	uxtah	r1, r3, r1
 8000d38:	f5b1 4f80 	cmp.w	r1, #16384	; 0x4000
        g_eth_rxpool_wpos = 0;
 8000d3c:	bfa4      	itt	ge
 8000d3e:	491d      	ldrge	r1, [pc, #116]	; (8000db4 <eth_vector+0xc0>)
 8000d40:	f8a1 9000 	strhge.w	r9, [r1]
  {
    // we received one or more frames. spin through and find them...
    while (!(g_eth_dma_rx_next_desc->des0 & 0x80000000))
    {
      // todo: check all of the error status bits in des0...
      const uint16_t rxn = (g_eth_dma_rx_next_desc->des0 & 0x3fff0000) >> 16;
 8000d44:	b29f      	uxth	r7, r3
      if (g_eth_rxpool_wpos + rxn >= ETH_RAM_RXPOOL_LEN)
        g_eth_rxpool_wpos = 0;
      const uint16_t wp = g_eth_rxpool_ptrs_wpos;
      g_eth_rxpool_start[wp] = &g_eth_rxpool[g_eth_rxpool_wpos];
      g_eth_rxpool_len[wp] = rxn;
      memcpy((uint8_t *)&g_eth_rxpool[g_eth_rxpool_wpos],
 8000d46:	461a      	mov	r2, r3
      // todo: check all of the error status bits in des0...
      const uint16_t rxn = (g_eth_dma_rx_next_desc->des0 & 0x3fff0000) >> 16;
      // see if this packet will run off the end of the buffer. if so, wrap.
      if (g_eth_rxpool_wpos + rxn >= ETH_RAM_RXPOOL_LEN)
        g_eth_rxpool_wpos = 0;
      const uint16_t wp = g_eth_rxpool_ptrs_wpos;
 8000d48:	8833      	ldrh	r3, [r6, #0]
      g_eth_rxpool_start[wp] = &g_eth_rxpool[g_eth_rxpool_wpos];
      g_eth_rxpool_len[wp] = rxn;
 8000d4a:	491c      	ldr	r1, [pc, #112]	; (8000dbc <eth_vector+0xc8>)
      const uint16_t rxn = (g_eth_dma_rx_next_desc->des0 & 0x3fff0000) >> 16;
      // see if this packet will run off the end of the buffer. if so, wrap.
      if (g_eth_rxpool_wpos + rxn >= ETH_RAM_RXPOOL_LEN)
        g_eth_rxpool_wpos = 0;
      const uint16_t wp = g_eth_rxpool_ptrs_wpos;
      g_eth_rxpool_start[wp] = &g_eth_rxpool[g_eth_rxpool_wpos];
 8000d4c:	f8b5 e000 	ldrh.w	lr, [r5]
      // todo: check all of the error status bits in des0...
      const uint16_t rxn = (g_eth_dma_rx_next_desc->des0 & 0x3fff0000) >> 16;
      // see if this packet will run off the end of the buffer. if so, wrap.
      if (g_eth_rxpool_wpos + rxn >= ETH_RAM_RXPOOL_LEN)
        g_eth_rxpool_wpos = 0;
      const uint16_t wp = g_eth_rxpool_ptrs_wpos;
 8000d50:	b29b      	uxth	r3, r3
      g_eth_rxpool_start[wp] = &g_eth_rxpool[g_eth_rxpool_wpos];
 8000d52:	fa1a fe8e 	uxtah	lr, sl, lr
      g_eth_rxpool_len[wp] = rxn;
 8000d56:	f821 7013 	strh.w	r7, [r1, r3, lsl #1]
      memcpy((uint8_t *)&g_eth_rxpool[g_eth_rxpool_wpos],
 8000d5a:	8828      	ldrh	r0, [r5, #0]
             (const uint8_t *)g_eth_dma_rx_next_desc->des2,
 8000d5c:	68a1      	ldr	r1, [r4, #8]
      const uint16_t rxn = (g_eth_dma_rx_next_desc->des0 & 0x3fff0000) >> 16;
      // see if this packet will run off the end of the buffer. if so, wrap.
      if (g_eth_rxpool_wpos + rxn >= ETH_RAM_RXPOOL_LEN)
        g_eth_rxpool_wpos = 0;
      const uint16_t wp = g_eth_rxpool_ptrs_wpos;
      g_eth_rxpool_start[wp] = &g_eth_rxpool[g_eth_rxpool_wpos];
 8000d5e:	f84b e023 	str.w	lr, [fp, r3, lsl #2]
      g_eth_rxpool_len[wp] = rxn;
      memcpy((uint8_t *)&g_eth_rxpool[g_eth_rxpool_wpos],
 8000d62:	fa1a f080 	uxtah	r0, sl, r0
 8000d66:	f001 fa37 	bl	80021d8 <memcpy>
             (const uint8_t *)g_eth_dma_rx_next_desc->des2,
             rxn);
      //printf("ethernet rx %d into rxpool ptr %d\r\n", rxn, wp);
      g_eth_rxpool_ptrs_wpos++;
 8000d6a:	8833      	ldrh	r3, [r6, #0]
 8000d6c:	b29b      	uxth	r3, r3
 8000d6e:	3301      	adds	r3, #1
 8000d70:	b29b      	uxth	r3, r3
 8000d72:	8033      	strh	r3, [r6, #0]
      if (g_eth_rxpool_ptrs_wpos >= ETH_RAM_RXPOOL_NPTR)
 8000d74:	8833      	ldrh	r3, [r6, #0]
 8000d76:	b29b      	uxth	r3, r3
 8000d78:	2b7f      	cmp	r3, #127	; 0x7f
        g_eth_rxpool_ptrs_wpos = 0;
 8000d7a:	bf84      	itt	hi
 8000d7c:	4b0e      	ldrhi	r3, [pc, #56]	; (8000db8 <eth_vector+0xc4>)
 8000d7e:	f8a3 9000 	strhhi.w	r9, [r3]
      g_eth_rxpool_wpos += rxn;
 8000d82:	882b      	ldrh	r3, [r5, #0]
 8000d84:	fa17 f783 	uxtah	r7, r7, r3
 8000d88:	b2bf      	uxth	r7, r7
 8000d8a:	802f      	strh	r7, [r5, #0]
      uint8_t *p = (uint8_t *)g_eth_rx_next_desc->des2;
      for (int i = 0; i < rxn; i++)
        printf("%02d: 0x%02x\r\n", i, p[i]);
*/

      g_eth_dma_rx_next_desc->des0 |= 0x80000000; // give it back to the DMA
 8000d8c:	6823      	ldr	r3, [r4, #0]
 8000d8e:	f043 4300 	orr.w	r3, r3, #2147483648	; 0x80000000
 8000d92:	6023      	str	r3, [r4, #0]
      // advance the rx pointer for next time
      g_eth_dma_rx_next_desc = (eth_dma_desc_t *)g_eth_dma_rx_next_desc->des3;
 8000d94:	68e4      	ldr	r4, [r4, #12]
 8000d96:	f8c8 4000 	str.w	r4, [r8]
  ETH->DMASR = dmasr; // clear pending bits in the status register
  //printf("eth_vector()\r\n");
  if (dmasr & ETH_DMASR_RS)
  {
    // we received one or more frames. spin through and find them...
    while (!(g_eth_dma_rx_next_desc->des0 & 0x80000000))
 8000d9a:	6823      	ldr	r3, [r4, #0]
 8000d9c:	2b00      	cmp	r3, #0
 8000d9e:	dac5      	bge.n	8000d2c <eth_vector+0x38>
      g_eth_dma_rx_next_desc->des0 |= 0x80000000; // give it back to the DMA
      // advance the rx pointer for next time
      g_eth_dma_rx_next_desc = (eth_dma_desc_t *)g_eth_dma_rx_next_desc->des3;
    }
  }
  dmasr = ETH->DMASR;
 8000da0:	4a03      	ldr	r2, [pc, #12]	; (8000db0 <eth_vector+0xbc>)
 8000da2:	f241 0314 	movw	r3, #4116	; 0x1014
 8000da6:	58d3      	ldr	r3, [r2, r3]
 8000da8:	9301      	str	r3, [sp, #4]
  //printf("dmasr = 0x%08x\r\n", (int)dmasr);
}
 8000daa:	b003      	add	sp, #12
 8000dac:	e8bd 8ff0 	ldmia.w	sp!, {r4, r5, r6, r7, r8, r9, sl, fp, pc}
 8000db0:	40028000 	.word	0x40028000
 8000db4:	2000907c 	.word	0x2000907c
 8000db8:	20008f78 	.word	0x20008f78
 8000dbc:	20008f7c 	.word	0x20008f7c
 8000dc0:	20000008 	.word	0x20000008
 8000dc4:	20009080 	.word	0x20009080
 8000dc8:	20009380 	.word	0x20009380

08000dcc <enet_get_link_status>:

///////////////////////////////////////////////////////////////////////////

uint16_t enet_read_phy_reg(const uint8_t reg_idx)
{
  while (ETH->MACMIIAR & ETH_MACMIIAR_MB) { } // ensure MII is idle
 8000dcc:	4907      	ldr	r1, [pc, #28]	; (8000dec <enet_get_link_status+0x20>)
 8000dce:	690b      	ldr	r3, [r1, #16]
 8000dd0:	4a06      	ldr	r2, [pc, #24]	; (8000dec <enet_get_link_status+0x20>)
 8000dd2:	07d8      	lsls	r0, r3, #31
 8000dd4:	d4fb      	bmi.n	8000dce <enet_get_link_status+0x2>
  ETH->MACMIIAR = (ENET_PHY_ADDR << 11) | 
 8000dd6:	f640 0351 	movw	r3, #2129	; 0x851
 8000dda:	6113      	str	r3, [r2, #16]
                  ((reg_idx & 0x1f) << 6) |
                  ETH_MACMIIAR_CR_Div102  | // clock divider
                  ETH_MACMIIAR_MB; 
  while (ETH->MACMIIAR & ETH_MACMIIAR_MB) { } // spin waiting for MII to finish
 8000ddc:	6913      	ldr	r3, [r2, #16]
 8000dde:	4903      	ldr	r1, [pc, #12]	; (8000dec <enet_get_link_status+0x20>)
 8000de0:	07db      	lsls	r3, r3, #31
 8000de2:	d4fb      	bmi.n	8000ddc <enet_get_link_status+0x10>
  return ETH->MACMIIDR & 0xffff;
 8000de4:	6948      	ldr	r0, [r1, #20]
  uint16_t status = enet_read_phy_reg(0x01);
  //printf("PHY status = 0x%02x\r\n", status);
  if (status & 0x04)
    return ENET_LINK_UP;
  return ENET_LINK_DOWN;
}
 8000de6:	f3c0 0080 	ubfx	r0, r0, #2, #1
 8000dea:	4770      	bx	lr
 8000dec:	40028000 	.word	0x40028000

08000df0 <eth_htons>:
  //printf(" rmii status = 0x%04x\r\n", (unsigned)r);
}

// todo: find ways for this to be overridden on CPU's with built-ins for this
uint16_t eth_htons(const uint16_t x)
{
 8000df0:	ba40      	rev16	r0, r0
  return ((x & 0xff) << 8) | ((x >> 8) & 0xff);
}
 8000df2:	b280      	uxth	r0, r0
 8000df4:	4770      	bx	lr
 8000df6:	bf00      	nop

08000df8 <eth_htonl>:
{
  return ((x & 0x000000ff) << 24)  |
         ((x & 0x0000ff00) << 8)   |
         ((x & 0x00ff0000) >> 8)   |
         ((x & 0xff000000) >> 24);
}
 8000df8:	ba00      	rev	r0, r0
 8000dfa:	4770      	bx	lr

08000dfc <enet_send_udp_ucast>:

void enet_send_udp_ucast(const uint8_t *dest_mac,
                         const uint32_t dest_ip, const uint16_t dest_port,
                         const uint32_t source_ip, const uint16_t source_port,
                         const uint8_t *payload, const uint16_t payload_len)
{
 8000dfc:	e92d 4ff8 	stmdb	sp!, {r3, r4, r5, r6, r7, r8, r9, sl, fp, lr}
 8000e00:	4f45      	ldr	r7, [pc, #276]	; (8000f18 <enet_send_udp_ucast+0x11c>)
 8000e02:	f8bd c028 	ldrh.w	ip, [sp, #40]	; 0x28
 8000e06:	f8bd 5030 	ldrh.w	r5, [sp, #48]	; 0x30
 8000e0a:	f8df e114 	ldr.w	lr, [pc, #276]	; 8000f20 <enet_send_udp_ucast+0x124>
  eth_udp_header_t *h = (eth_udp_header_t *)&g_eth_udpbuf[0];  
  for (int i = 0; i < 6; i++)
 8000e0e:	2600      	movs	r6, #0
  {
    h->ip.eth.dest_addr[i] = dest_mac[i];
 8000e10:	5d84      	ldrb	r4, [r0, r6]
 8000e12:	55bc      	strb	r4, [r7, r6]
    h->ip.eth.source_addr[i] = g_eth_src_mac[i];
 8000e14:	f81e 8006 	ldrb.w	r8, [lr, r6]
 8000e18:	19bc      	adds	r4, r7, r6
                         const uint32_t dest_ip, const uint16_t dest_port,
                         const uint32_t source_ip, const uint16_t source_port,
                         const uint8_t *payload, const uint16_t payload_len)
{
  eth_udp_header_t *h = (eth_udp_header_t *)&g_eth_udpbuf[0];  
  for (int i = 0; i < 6; i++)
 8000e1a:	3601      	adds	r6, #1
 8000e1c:	2e06      	cmp	r6, #6
  {
    h->ip.eth.dest_addr[i] = dest_mac[i];
    h->ip.eth.source_addr[i] = g_eth_src_mac[i];
 8000e1e:	f884 8006 	strb.w	r8, [r4, #6]
                         const uint8_t *payload, const uint16_t payload_len)
{
  eth_udp_header_t *h = (eth_udp_header_t *)&g_eth_udpbuf[0];  
  for (int i = 0; i < 6; i++)
  {
    h->ip.eth.dest_addr[i] = dest_mac[i];
 8000e22:	4c3d      	ldr	r4, [pc, #244]	; (8000f18 <enet_send_udp_ucast+0x11c>)
                         const uint32_t dest_ip, const uint16_t dest_port,
                         const uint32_t source_ip, const uint16_t source_port,
                         const uint8_t *payload, const uint16_t payload_len)
{
  eth_udp_header_t *h = (eth_udp_header_t *)&g_eth_udpbuf[0];  
  for (int i = 0; i < 6; i++)
 8000e24:	d1f4      	bne.n	8000e10 <enet_send_udp_ucast+0x14>
  {
    h->ip.eth.dest_addr[i] = dest_mac[i];
    h->ip.eth.source_addr[i] = g_eth_src_mac[i];
  }
  h->ip.eth.ethertype = eth_htons(ETH_ETHERTYPE_IP);
  h->ip.header_len = ETH_IP_HEADER_LEN;
 8000e26:	f894 e00e 	ldrb.w	lr, [r4, #14]
  h->ip.version = ETH_IP_VERSION; // ipv4
  h->ip.ecn = 0;
 8000e2a:	7be7      	ldrb	r7, [r4, #15]
  h->ip.diff_serv = 0;
  h->ip.len = eth_htons(20 + 8 + payload_len);
  h->ip.id = 0;
 8000e2c:	8a60      	ldrh	r0, [r4, #18]
  h->ip.flag_frag = eth_htons(ETH_IP_DONT_FRAGMENT);
  h->ip.ttl = 1; // not sure here...
  h->ip.proto = ETH_IP_PROTO_UDP;
  h->ip.checksum = 0; // will be filled by the ethernet TX machinery
 8000e2e:	8b26      	ldrh	r6, [r4, #24]
}

void eth_send_raw_packet(uint8_t *pkt, uint16_t pkt_len)
{
  //printf("eth tx %d\r\n", pkt_len);
  if (g_eth_dma_tx_next_desc->des0 & 0x80000000) // check the OWN bit
 8000e30:	f8df 80f0 	ldr.w	r8, [pc, #240]	; 8000f24 <enet_send_udp_ucast+0x128>
  {
    h->ip.eth.dest_addr[i] = dest_mac[i];
    h->ip.eth.source_addr[i] = g_eth_src_mac[i];
  }
  h->ip.eth.ethertype = eth_htons(ETH_ETHERTYPE_IP);
  h->ip.header_len = ETH_IP_HEADER_LEN;
 8000e34:	f04f 0905 	mov.w	r9, #5
 8000e38:	fa91 fa81 	rev.w	sl, r1
 8000e3c:	f369 0e03 	bfi	lr, r9, #0, #4
 8000e40:	ba1b      	rev	r3, r3
  h->ip.version = ETH_IP_VERSION; // ipv4
 8000e42:	f04f 0904 	mov.w	r9, #4
  h->ip.ecn = 0;
  h->ip.diff_serv = 0;
 8000e46:	f007 07fc 	and.w	r7, r7, #252	; 0xfc
  h->ip.source_addr = eth_htonl(source_ip); //); // todo: something else
  h->dest_port = eth_htons(dest_port);
  h->source_port = eth_htons(source_port); //1234;
  h->len = eth_htons(8 + payload_len);
  h->checksum = 0; // will be filled by the ethernet TX machinery
  memcpy(g_eth_udpbuf + sizeof(eth_udp_header_t), payload, payload_len);
 8000e4a:	990b      	ldr	r1, [sp, #44]	; 0x2c
  h->ip.id = 0;
  h->ip.flag_frag = eth_htons(ETH_IP_DONT_FRAGMENT);
  h->ip.ttl = 1; // not sure here...
  h->ip.proto = ETH_IP_PROTO_UDP;
  h->ip.checksum = 0; // will be filled by the ethernet TX machinery
  h->ip.dest_addr = eth_htonl(dest_ip);
 8000e4c:	f8c4 a01e 	str.w	sl, [r4, #30]
  h->ip.eth.ethertype = eth_htons(ETH_ETHERTYPE_IP);
  h->ip.header_len = ETH_IP_HEADER_LEN;
  h->ip.version = ETH_IP_VERSION; // ipv4
  h->ip.ecn = 0;
  h->ip.diff_serv = 0;
  h->ip.len = eth_htons(20 + 8 + payload_len);
 8000e50:	f105 0b1c 	add.w	fp, r5, #28
 8000e54:	fa9c fc9c 	rev16.w	ip, ip
    h->ip.eth.dest_addr[i] = dest_mac[i];
    h->ip.eth.source_addr[i] = g_eth_src_mac[i];
  }
  h->ip.eth.ethertype = eth_htons(ETH_ETHERTYPE_IP);
  h->ip.header_len = ETH_IP_HEADER_LEN;
  h->ip.version = ETH_IP_VERSION; // ipv4
 8000e58:	f369 1e07 	bfi	lr, r9, #4, #4
  h->ip.ecn = 0;
  h->ip.diff_serv = 0;
 8000e5c:	f36f 0787 	bfc	r7, #2, #6
  h->ip.checksum = 0; // will be filled by the ethernet TX machinery
  h->ip.dest_addr = eth_htonl(dest_ip);
  h->ip.source_addr = eth_htonl(source_ip); //); // todo: something else
  h->dest_port = eth_htons(dest_port);
  h->source_port = eth_htons(source_port); //1234;
  h->len = eth_htons(8 + payload_len);
 8000e60:	f105 0a08 	add.w	sl, r5, #8
  h->ip.flag_frag = eth_htons(ETH_IP_DONT_FRAGMENT);
  h->ip.ttl = 1; // not sure here...
  h->ip.proto = ETH_IP_PROTO_UDP;
  h->ip.checksum = 0; // will be filled by the ethernet TX machinery
  h->ip.dest_addr = eth_htonl(dest_ip);
  h->ip.source_addr = eth_htonl(source_ip); //); // todo: something else
 8000e64:	f8c4 301a 	str.w	r3, [r4, #26]
  for (int i = 0; i < 6; i++)
  {
    h->ip.eth.dest_addr[i] = dest_mac[i];
    h->ip.eth.source_addr[i] = g_eth_src_mac[i];
  }
  h->ip.eth.ethertype = eth_htons(ETH_ETHERTYPE_IP);
 8000e68:	2308      	movs	r3, #8
 8000e6a:	ba52      	rev16	r2, r2
  h->ip.header_len = ETH_IP_HEADER_LEN;
  h->ip.version = ETH_IP_VERSION; // ipv4
  h->ip.ecn = 0;
  h->ip.diff_serv = 0;
  h->ip.len = eth_htons(20 + 8 + payload_len);
  h->ip.id = 0;
 8000e6c:	f36f 000f 	bfc	r0, #0, #16
  h->ip.flag_frag = eth_htons(ETH_IP_DONT_FRAGMENT);
  h->ip.ttl = 1; // not sure here...
  h->ip.proto = ETH_IP_PROTO_UDP;
  h->ip.checksum = 0; // will be filled by the ethernet TX machinery
 8000e70:	f36f 060f 	bfc	r6, #0, #16
  h->ip.dest_addr = eth_htonl(dest_ip);
  h->ip.source_addr = eth_htonl(source_ip); //); // todo: something else
  h->dest_port = eth_htons(dest_port);
  h->source_port = eth_htons(source_port); //1234;
 8000e74:	f8a4 c022 	strh.w	ip, [r4, #34]	; 0x22
    h->ip.eth.dest_addr[i] = dest_mac[i];
    h->ip.eth.source_addr[i] = g_eth_src_mac[i];
  }
  h->ip.eth.ethertype = eth_htons(ETH_ETHERTYPE_IP);
  h->ip.header_len = ETH_IP_HEADER_LEN;
  h->ip.version = ETH_IP_VERSION; // ipv4
 8000e78:	f884 e00e 	strb.w	lr, [r4, #14]
  h->ip.ecn = 0;
  h->ip.diff_serv = 0;
  h->ip.len = eth_htons(20 + 8 + payload_len);
  h->ip.id = 0;
  h->ip.flag_frag = eth_htons(ETH_IP_DONT_FRAGMENT);
  h->ip.ttl = 1; // not sure here...
 8000e7c:	f04f 0c01 	mov.w	ip, #1
  h->ip.proto = ETH_IP_PROTO_UDP;
 8000e80:	f04f 0e11 	mov.w	lr, #17
  }
  h->ip.eth.ethertype = eth_htons(ETH_ETHERTYPE_IP);
  h->ip.header_len = ETH_IP_HEADER_LEN;
  h->ip.version = ETH_IP_VERSION; // ipv4
  h->ip.ecn = 0;
  h->ip.diff_serv = 0;
 8000e84:	73e7      	strb	r7, [r4, #15]
  for (int i = 0; i < 6; i++)
  {
    h->ip.eth.dest_addr[i] = dest_mac[i];
    h->ip.eth.source_addr[i] = g_eth_src_mac[i];
  }
  h->ip.eth.ethertype = eth_htons(ETH_ETHERTYPE_IP);
 8000e86:	81a3      	strh	r3, [r4, #12]
  h->ip.dest_addr = eth_htonl(dest_ip);
  h->ip.source_addr = eth_htonl(source_ip); //); // todo: something else
  h->dest_port = eth_htons(dest_port);
  h->source_port = eth_htons(source_port); //1234;
  h->len = eth_htons(8 + payload_len);
  h->checksum = 0; // will be filled by the ethernet TX machinery
 8000e88:	2700      	movs	r7, #0
  h->ip.version = ETH_IP_VERSION; // ipv4
  h->ip.ecn = 0;
  h->ip.diff_serv = 0;
  h->ip.len = eth_htons(20 + 8 + payload_len);
  h->ip.id = 0;
  h->ip.flag_frag = eth_htons(ETH_IP_DONT_FRAGMENT);
 8000e8a:	f04f 0340 	mov.w	r3, #64	; 0x40
 8000e8e:	fa9b fb9b 	rev16.w	fp, fp
 8000e92:	fa9a fa9a 	rev16.w	sl, sl
  h->ip.ttl = 1; // not sure here...
  h->ip.proto = ETH_IP_PROTO_UDP;
  h->ip.checksum = 0; // will be filled by the ethernet TX machinery
  h->ip.dest_addr = eth_htonl(dest_ip);
  h->ip.source_addr = eth_htonl(source_ip); //); // todo: something else
  h->dest_port = eth_htons(dest_port);
 8000e96:	84a2      	strh	r2, [r4, #36]	; 0x24
  h->ip.header_len = ETH_IP_HEADER_LEN;
  h->ip.version = ETH_IP_VERSION; // ipv4
  h->ip.ecn = 0;
  h->ip.diff_serv = 0;
  h->ip.len = eth_htons(20 + 8 + payload_len);
  h->ip.id = 0;
 8000e98:	8260      	strh	r0, [r4, #18]
  h->ip.flag_frag = eth_htons(ETH_IP_DONT_FRAGMENT);
  h->ip.ttl = 1; // not sure here...
  h->ip.proto = ETH_IP_PROTO_UDP;
  h->ip.checksum = 0; // will be filled by the ethernet TX machinery
 8000e9a:	8326      	strh	r6, [r4, #24]
  h->ip.source_addr = eth_htonl(source_ip); //); // todo: something else
  h->dest_port = eth_htons(dest_port);
  h->source_port = eth_htons(source_port); //1234;
  h->len = eth_htons(8 + payload_len);
  h->checksum = 0; // will be filled by the ethernet TX machinery
  memcpy(g_eth_udpbuf + sizeof(eth_udp_header_t), payload, payload_len);
 8000e9c:	462a      	mov	r2, r5
  h->ip.version = ETH_IP_VERSION; // ipv4
  h->ip.ecn = 0;
  h->ip.diff_serv = 0;
  h->ip.len = eth_htons(20 + 8 + payload_len);
  h->ip.id = 0;
  h->ip.flag_frag = eth_htons(ETH_IP_DONT_FRAGMENT);
 8000e9e:	82a3      	strh	r3, [r4, #20]
  h->ip.source_addr = eth_htonl(source_ip); //); // todo: something else
  h->dest_port = eth_htons(dest_port);
  h->source_port = eth_htons(source_port); //1234;
  h->len = eth_htons(8 + payload_len);
  h->checksum = 0; // will be filled by the ethernet TX machinery
  memcpy(g_eth_udpbuf + sizeof(eth_udp_header_t), payload, payload_len);
 8000ea0:	f104 002a 	add.w	r0, r4, #42	; 0x2a
  h->ip.eth.ethertype = eth_htons(ETH_ETHERTYPE_IP);
  h->ip.header_len = ETH_IP_HEADER_LEN;
  h->ip.version = ETH_IP_VERSION; // ipv4
  h->ip.ecn = 0;
  h->ip.diff_serv = 0;
  h->ip.len = eth_htons(20 + 8 + payload_len);
 8000ea4:	f8a4 b010 	strh.w	fp, [r4, #16]
  h->ip.checksum = 0; // will be filled by the ethernet TX machinery
  h->ip.dest_addr = eth_htonl(dest_ip);
  h->ip.source_addr = eth_htonl(source_ip); //); // todo: something else
  h->dest_port = eth_htons(dest_port);
  h->source_port = eth_htons(source_port); //1234;
  h->len = eth_htons(8 + payload_len);
 8000ea8:	f8a4 a026 	strh.w	sl, [r4, #38]	; 0x26
  h->ip.ecn = 0;
  h->ip.diff_serv = 0;
  h->ip.len = eth_htons(20 + 8 + payload_len);
  h->ip.id = 0;
  h->ip.flag_frag = eth_htons(ETH_IP_DONT_FRAGMENT);
  h->ip.ttl = 1; // not sure here...
 8000eac:	f884 c016 	strb.w	ip, [r4, #22]
  h->ip.proto = ETH_IP_PROTO_UDP;
 8000eb0:	f884 e017 	strb.w	lr, [r4, #23]
  h->ip.dest_addr = eth_htonl(dest_ip);
  h->ip.source_addr = eth_htonl(source_ip); //); // todo: something else
  h->dest_port = eth_htons(dest_port);
  h->source_port = eth_htons(source_port); //1234;
  h->len = eth_htons(8 + payload_len);
  h->checksum = 0; // will be filled by the ethernet TX machinery
 8000eb4:	8527      	strh	r7, [r4, #40]	; 0x28
  memcpy(g_eth_udpbuf + sizeof(eth_udp_header_t), payload, payload_len);
 8000eb6:	f001 f98f 	bl	80021d8 <memcpy>
}

void eth_send_raw_packet(uint8_t *pkt, uint16_t pkt_len)
{
  //printf("eth tx %d\r\n", pkt_len);
  if (g_eth_dma_tx_next_desc->des0 & 0x80000000) // check the OWN bit
 8000eba:	f8d8 6000 	ldr.w	r6, [r8]
 8000ebe:	6833      	ldr	r3, [r6, #0]
  h->dest_port = eth_htons(dest_port);
  h->source_port = eth_htons(source_port); //1234;
  h->len = eth_htons(8 + payload_len);
  h->checksum = 0; // will be filled by the ethernet TX machinery
  memcpy(g_eth_udpbuf + sizeof(eth_udp_header_t), payload, payload_len);
  eth_send_raw_packet(g_eth_udpbuf, sizeof(eth_udp_header_t) + payload_len);
 8000ec0:	352a      	adds	r5, #42	; 0x2a
}

void eth_send_raw_packet(uint8_t *pkt, uint16_t pkt_len)
{
  //printf("eth tx %d\r\n", pkt_len);
  if (g_eth_dma_tx_next_desc->des0 & 0x80000000) // check the OWN bit
 8000ec2:	42bb      	cmp	r3, r7
  h->dest_port = eth_htons(dest_port);
  h->source_port = eth_htons(source_port); //1234;
  h->len = eth_htons(8 + payload_len);
  h->checksum = 0; // will be filled by the ethernet TX machinery
  memcpy(g_eth_udpbuf + sizeof(eth_udp_header_t), payload, payload_len);
  eth_send_raw_packet(g_eth_udpbuf, sizeof(eth_udp_header_t) + payload_len);
 8000ec4:	b2ad      	uxth	r5, r5
}

void eth_send_raw_packet(uint8_t *pkt, uint16_t pkt_len)
{
  //printf("eth tx %d\r\n", pkt_len);
  if (g_eth_dma_tx_next_desc->des0 & 0x80000000) // check the OWN bit
 8000ec6:	db1e      	blt.n	8000f06 <enet_send_udp_ucast+0x10a>
         (unsigned)g_eth_tx_next_desc->control);
 */
  uint8_t *buf = (uint8_t *)g_eth_dma_tx_next_desc->des2;
  if (pkt_len > ETH_NBUF)
    pkt_len = ETH_NBUF; // let's not blow through our packet buffer
  memcpy(buf, pkt, pkt_len);
 8000ec8:	f5b5 6f00 	cmp.w	r5, #2048	; 0x800
 8000ecc:	bf28      	it	cs
 8000ece:	f44f 6500 	movcs.w	r5, #2048	; 0x800
 8000ed2:	4621      	mov	r1, r4
 8000ed4:	462a      	mov	r2, r5
  /*
  printf("sending using TX descriptor %08x status 0x%08x\r\n", 
         (unsigned)g_eth_tx_next_desc,
         (unsigned)g_eth_tx_next_desc->control);
 */
  uint8_t *buf = (uint8_t *)g_eth_dma_tx_next_desc->des2;
 8000ed6:	68b0      	ldr	r0, [r6, #8]
  if (pkt_len > ETH_NBUF)
    pkt_len = ETH_NBUF; // let's not blow through our packet buffer
  memcpy(buf, pkt, pkt_len);
 8000ed8:	f001 f97e 	bl	80021d8 <memcpy>
  g_eth_dma_tx_next_desc->des1 = pkt_len;
 8000edc:	6075      	str	r5, [r6, #4]
  g_eth_dma_tx_next_desc->des0 |= 0x30000000; // LS+FS = single-buffer packet
 8000ede:	6832      	ldr	r2, [r6, #0]
  g_eth_dma_tx_next_desc->des0 |= 0x80000000; // give ownership to ethernet DMA
  // see if DMA is stuck because it wasn't transmitting (which will almost
  // always be the case). if it's stuck, kick it into motion again
  if ((ETH->DMASR & ETH_DMASR_TPS) == ETH_DMASR_TPS_Suspended)
 8000ee0:	4b0e      	ldr	r3, [pc, #56]	; (8000f1c <enet_send_udp_ucast+0x120>)
  uint8_t *buf = (uint8_t *)g_eth_dma_tx_next_desc->des2;
  if (pkt_len > ETH_NBUF)
    pkt_len = ETH_NBUF; // let's not blow through our packet buffer
  memcpy(buf, pkt, pkt_len);
  g_eth_dma_tx_next_desc->des1 = pkt_len;
  g_eth_dma_tx_next_desc->des0 |= 0x30000000; // LS+FS = single-buffer packet
 8000ee2:	f042 5240 	orr.w	r2, r2, #805306368	; 0x30000000
 8000ee6:	6032      	str	r2, [r6, #0]
  g_eth_dma_tx_next_desc->des0 |= 0x80000000; // give ownership to ethernet DMA
 8000ee8:	6831      	ldr	r1, [r6, #0]
  // see if DMA is stuck because it wasn't transmitting (which will almost
  // always be the case). if it's stuck, kick it into motion again
  if ((ETH->DMASR & ETH_DMASR_TPS) == ETH_DMASR_TPS_Suspended)
 8000eea:	f241 0214 	movw	r2, #4116	; 0x1014
  if (pkt_len > ETH_NBUF)
    pkt_len = ETH_NBUF; // let's not blow through our packet buffer
  memcpy(buf, pkt, pkt_len);
  g_eth_dma_tx_next_desc->des1 = pkt_len;
  g_eth_dma_tx_next_desc->des0 |= 0x30000000; // LS+FS = single-buffer packet
  g_eth_dma_tx_next_desc->des0 |= 0x80000000; // give ownership to ethernet DMA
 8000eee:	f041 4100 	orr.w	r1, r1, #2147483648	; 0x80000000
 8000ef2:	6031      	str	r1, [r6, #0]
  // see if DMA is stuck because it wasn't transmitting (which will almost
  // always be the case). if it's stuck, kick it into motion again
  if ((ETH->DMASR & ETH_DMASR_TPS) == ETH_DMASR_TPS_Suspended)
 8000ef4:	5899      	ldr	r1, [r3, r2]
 8000ef6:	f401 01e0 	and.w	r1, r1, #7340032	; 0x700000
 8000efa:	f5b1 0fc0 	cmp.w	r1, #6291456	; 0x600000
 8000efe:	d004      	beq.n	8000f0a <enet_send_udp_ucast+0x10e>
  {
    ETH->DMASR = ETH_DMASR_TBUS; // clear the buffer-unavailable flag
    ETH->DMATPDR = 0; // transmit poll demand = kick it moving again
  }
  g_eth_dma_tx_next_desc = (eth_dma_desc_t *)g_eth_dma_tx_next_desc->des3;
 8000f00:	68f3      	ldr	r3, [r6, #12]
 8000f02:	f8c8 3000 	str.w	r3, [r8]
 8000f06:	e8bd 8ff8 	ldmia.w	sp!, {r3, r4, r5, r6, r7, r8, r9, sl, fp, pc}
  // see if DMA is stuck because it wasn't transmitting (which will almost
  // always be the case). if it's stuck, kick it into motion again
  if ((ETH->DMASR & ETH_DMASR_TPS) == ETH_DMASR_TPS_Suspended)
  {
    ETH->DMASR = ETH_DMASR_TBUS; // clear the buffer-unavailable flag
    ETH->DMATPDR = 0; // transmit poll demand = kick it moving again
 8000f0a:	f241 0104 	movw	r1, #4100	; 0x1004
  g_eth_dma_tx_next_desc->des0 |= 0x80000000; // give ownership to ethernet DMA
  // see if DMA is stuck because it wasn't transmitting (which will almost
  // always be the case). if it's stuck, kick it into motion again
  if ((ETH->DMASR & ETH_DMASR_TPS) == ETH_DMASR_TPS_Suspended)
  {
    ETH->DMASR = ETH_DMASR_TBUS; // clear the buffer-unavailable flag
 8000f0e:	f843 9002 	str.w	r9, [r3, r2]
    ETH->DMATPDR = 0; // transmit poll demand = kick it moving again
 8000f12:	505f      	str	r7, [r3, r1]
 8000f14:	e7f4      	b.n	8000f00 <enet_send_udp_ucast+0x104>
 8000f16:	bf00      	nop
 8000f18:	20000958 	.word	0x20000958
 8000f1c:	40028000 	.word	0x40028000
 8000f20:	0800903c 	.word	0x0800903c
 8000f24:	20000004 	.word	0x20000004

08000f28 <enet_send_udp_mcast>:
static uint8_t  g_eth_src_mac[6] = { 0xa4, 0xf3, 0xc1, 0x00, 0x01, 0x00 };
static uint32_t g_eth_src_ip = 0x0a42ab99; // todo... not this.

void enet_send_udp_mcast(const uint32_t mcast_ip, const uint16_t mcast_port,
                         const uint8_t *payload, const uint16_t payload_len)
{
 8000f28:	b5f0      	push	{r4, r5, r6, r7, lr}
 8000f2a:	b087      	sub	sp, #28
  uint8_t dest_mac[6] = { 0x01, 0x00, 0x5e, 
                          (uint8_t)((mcast_ip & 0xff0000) >> 16),
                          (uint8_t)((mcast_ip & 0x00ff00) >>  8),
                          (uint8_t) (mcast_ip & 0x0000ff) };
  enet_send_udp_ucast(dest_mac, mcast_ip, mcast_port,
 8000f2c:	e88d 000e 	stmia.w	sp, {r1, r2, r3}

void enet_send_udp_mcast(const uint32_t mcast_ip, const uint16_t mcast_port,
                         const uint8_t *payload, const uint16_t payload_len)
{
  uint8_t dest_mac[6] = { 0x01, 0x00, 0x5e, 
                          (uint8_t)((mcast_ip & 0xff0000) >> 16),
 8000f30:	f3c0 4c07 	ubfx	ip, r0, #16, #8
                          (uint8_t)((mcast_ip & 0x00ff00) >>  8),
 8000f34:	f3c0 2e07 	ubfx	lr, r0, #8, #8
static uint8_t  g_eth_src_mac[6] = { 0xa4, 0xf3, 0xc1, 0x00, 0x01, 0x00 };
static uint32_t g_eth_src_ip = 0x0a42ab99; // todo... not this.

void enet_send_udp_mcast(const uint32_t mcast_ip, const uint16_t mcast_port,
                         const uint8_t *payload, const uint16_t payload_len)
{
 8000f38:	4604      	mov	r4, r0
  uint8_t dest_mac[6] = { 0x01, 0x00, 0x5e, 
                          (uint8_t)((mcast_ip & 0xff0000) >> 16),
                          (uint8_t)((mcast_ip & 0x00ff00) >>  8),
                          (uint8_t) (mcast_ip & 0x0000ff) };
  enet_send_udp_ucast(dest_mac, mcast_ip, mcast_port,
 8000f3a:	460a      	mov	r2, r1
static uint32_t g_eth_src_ip = 0x0a42ab99; // todo... not this.

void enet_send_udp_mcast(const uint32_t mcast_ip, const uint16_t mcast_port,
                         const uint8_t *payload, const uint16_t payload_len)
{
  uint8_t dest_mac[6] = { 0x01, 0x00, 0x5e, 
 8000f3c:	2701      	movs	r7, #1
                          (uint8_t)((mcast_ip & 0xff0000) >> 16),
                          (uint8_t)((mcast_ip & 0x00ff00) >>  8),
                          (uint8_t) (mcast_ip & 0x0000ff) };
  enet_send_udp_ucast(dest_mac, mcast_ip, mcast_port,
 8000f3e:	4601      	mov	r1, r0
static uint32_t g_eth_src_ip = 0x0a42ab99; // todo... not this.

void enet_send_udp_mcast(const uint32_t mcast_ip, const uint16_t mcast_port,
                         const uint8_t *payload, const uint16_t payload_len)
{
  uint8_t dest_mac[6] = { 0x01, 0x00, 0x5e, 
 8000f40:	2600      	movs	r6, #0
 8000f42:	255e      	movs	r5, #94	; 0x5e
                          (uint8_t)((mcast_ip & 0xff0000) >> 16),
                          (uint8_t)((mcast_ip & 0x00ff00) >>  8),
                          (uint8_t) (mcast_ip & 0x0000ff) };
  enet_send_udp_ucast(dest_mac, mcast_ip, mcast_port,
 8000f44:	a804      	add	r0, sp, #16
 8000f46:	4b08      	ldr	r3, [pc, #32]	; (8000f68 <enet_send_udp_mcast+0x40>)
                         const uint8_t *payload, const uint16_t payload_len)
{
  uint8_t dest_mac[6] = { 0x01, 0x00, 0x5e, 
                          (uint8_t)((mcast_ip & 0xff0000) >> 16),
                          (uint8_t)((mcast_ip & 0x00ff00) >>  8),
                          (uint8_t) (mcast_ip & 0x0000ff) };
 8000f48:	f88d 4015 	strb.w	r4, [sp, #21]

void enet_send_udp_mcast(const uint32_t mcast_ip, const uint16_t mcast_port,
                         const uint8_t *payload, const uint16_t payload_len)
{
  uint8_t dest_mac[6] = { 0x01, 0x00, 0x5e, 
                          (uint8_t)((mcast_ip & 0xff0000) >> 16),
 8000f4c:	f88d c013 	strb.w	ip, [sp, #19]
                          (uint8_t)((mcast_ip & 0x00ff00) >>  8),
 8000f50:	f88d e014 	strb.w	lr, [sp, #20]
static uint32_t g_eth_src_ip = 0x0a42ab99; // todo... not this.

void enet_send_udp_mcast(const uint32_t mcast_ip, const uint16_t mcast_port,
                         const uint8_t *payload, const uint16_t payload_len)
{
  uint8_t dest_mac[6] = { 0x01, 0x00, 0x5e, 
 8000f54:	f88d 7010 	strb.w	r7, [sp, #16]
 8000f58:	f88d 6011 	strb.w	r6, [sp, #17]
 8000f5c:	f88d 5012 	strb.w	r5, [sp, #18]
                          (uint8_t)((mcast_ip & 0xff0000) >> 16),
                          (uint8_t)((mcast_ip & 0x00ff00) >>  8),
                          (uint8_t) (mcast_ip & 0x0000ff) };
  enet_send_udp_ucast(dest_mac, mcast_ip, mcast_port,
 8000f60:	f7ff ff4c 	bl	8000dfc <enet_send_udp_ucast>
                      0x0a0a0002 /*mcast_ip*/, mcast_port,
                      payload, payload_len);
}
 8000f64:	b007      	add	sp, #28
 8000f66:	bdf0      	pop	{r4, r5, r6, r7, pc}
 8000f68:	0a0a0002 	.word	0x0a0a0002

08000f6c <enet_process_rx_ring>:
  eth_send_raw_packet(raw_test_pkt, 68); //sizeof(reg_idx) + payload_len);
  */
}

void enet_process_rx_ring()
{
 8000f6c:	e92d 4ff0 	stmdb	sp!, {r4, r5, r6, r7, r8, r9, sl, fp, lr}
 8000f70:	4e4b      	ldr	r6, [pc, #300]	; (80010a0 <enet_process_rx_ring+0x134>)
 8000f72:	4f4c      	ldr	r7, [pc, #304]	; (80010a4 <enet_process_rx_ring+0x138>)
  while (g_eth_rxpool_ptrs_wpos != g_eth_rxpool_ptrs_rpos)
  {
    const uint16_t rp = g_eth_rxpool_ptrs_rpos;
    const uint8_t *start = (const uint8_t *)g_eth_rxpool_start[rp];
 8000f74:	f8df a134 	ldr.w	sl, [pc, #308]	; 80010ac <enet_process_rx_ring+0x140>
    const uint16_t len = g_eth_rxpool_len[rp];
 8000f78:	f8df 9134 	ldr.w	r9, [pc, #308]	; 80010b0 <enet_process_rx_ring+0x144>
  eth_send_raw_packet(raw_test_pkt, 68); //sizeof(reg_idx) + payload_len);
  */
}

void enet_process_rx_ring()
{
 8000f7c:	b083      	sub	sp, #12
  while (g_eth_rxpool_ptrs_wpos != g_eth_rxpool_ptrs_rpos)
 8000f7e:	46b0      	mov	r8, r6
 8000f80:	883a      	ldrh	r2, [r7, #0]
 8000f82:	8833      	ldrh	r3, [r6, #0]
 8000f84:	b292      	uxth	r2, r2
 8000f86:	b29b      	uxth	r3, r3
 8000f88:	429a      	cmp	r2, r3
 8000f8a:	d072      	beq.n	8001072 <enet_process_rx_ring+0x106>
  {
    const uint16_t rp = g_eth_rxpool_ptrs_rpos;
 8000f8c:	f8b8 3000 	ldrh.w	r3, [r8]
 8000f90:	f8df c120 	ldr.w	ip, [pc, #288]	; 80010b4 <enet_process_rx_ring+0x148>
 8000f94:	b29b      	uxth	r3, r3
    //printf("eth rxpool wpos = %d rpos = %d start %d len %d\r\n",
    //       g_eth_rxpool_ptrs_wpos,
    //       rp, start - g_eth_rxpool, len);
    // see if it's addressed to us
    const eth_eth_header_t *e = (const eth_eth_header_t *)start;
    uint8_t unicast_match = 1, multicast_match = 1, broadcast_match = 1;
 8000f96:	2101      	movs	r1, #1
{
  while (g_eth_rxpool_ptrs_wpos != g_eth_rxpool_ptrs_rpos)
  {
    const uint16_t rp = g_eth_rxpool_ptrs_rpos;
    const uint8_t *start = (const uint8_t *)g_eth_rxpool_start[rp];
    const uint16_t len = g_eth_rxpool_len[rp];
 8000f98:	f839 b013 	ldrh.w	fp, [r9, r3, lsl #1]
void enet_process_rx_ring()
{
  while (g_eth_rxpool_ptrs_wpos != g_eth_rxpool_ptrs_rpos)
  {
    const uint16_t rp = g_eth_rxpool_ptrs_rpos;
    const uint8_t *start = (const uint8_t *)g_eth_rxpool_start[rp];
 8000f9c:	f85a 5023 	ldr.w	r5, [sl, r3, lsl #2]
    const uint16_t len = g_eth_rxpool_len[rp];
 8000fa0:	fa1f fb8b 	uxth.w	fp, fp
    //printf("eth rxpool wpos = %d rpos = %d start %d len %d\r\n",
    //       g_eth_rxpool_ptrs_wpos,
    //       rp, start - g_eth_rxpool, len);
    // see if it's addressed to us
    const eth_eth_header_t *e = (const eth_eth_header_t *)start;
    uint8_t unicast_match = 1, multicast_match = 1, broadcast_match = 1;
 8000fa4:	4608      	mov	r0, r1
    /*
    printf("rx mac: %02x:%02x:%02x:%02x:%02x:%02x\r\n",
           e->dest_addr[0], e->dest_addr[1], e->dest_addr[2],
           e->dest_addr[3], e->dest_addr[4], e->dest_addr[5]);
    */
    for (int i = 0; i < 6; i++)
 8000fa6:	2300      	movs	r3, #0
    {
      if (e->dest_addr[i] != g_eth_src_mac[i])
 8000fa8:	5cea      	ldrb	r2, [r5, r3]
 8000faa:	f81c 4003 	ldrb.w	r4, [ip, r3]
    /*
    printf("rx mac: %02x:%02x:%02x:%02x:%02x:%02x\r\n",
           e->dest_addr[0], e->dest_addr[1], e->dest_addr[2],
           e->dest_addr[3], e->dest_addr[4], e->dest_addr[5]);
    */
    for (int i = 0; i < 6; i++)
 8000fae:	3301      	adds	r3, #1
    {
      if (e->dest_addr[i] != g_eth_src_mac[i])
        unicast_match = 0;
 8000fb0:	4294      	cmp	r4, r2
 8000fb2:	bf18      	it	ne
 8000fb4:	2000      	movne	r0, #0
      if (e->dest_addr[i] != 0xff)
        broadcast_match = 0;
 8000fb6:	2aff      	cmp	r2, #255	; 0xff
 8000fb8:	bf18      	it	ne
 8000fba:	2100      	movne	r1, #0
    /*
    printf("rx mac: %02x:%02x:%02x:%02x:%02x:%02x\r\n",
           e->dest_addr[0], e->dest_addr[1], e->dest_addr[2],
           e->dest_addr[3], e->dest_addr[4], e->dest_addr[5]);
    */
    for (int i = 0; i < 6; i++)
 8000fbc:	2b06      	cmp	r3, #6
 8000fbe:	d1f3      	bne.n	8000fa8 <enet_process_rx_ring+0x3c>
      if (e->dest_addr[i] != g_eth_src_mac[i])
        unicast_match = 0;
      if (e->dest_addr[i] != 0xff)
        broadcast_match = 0;
    }
    if (e->dest_addr[0] != 0x01 ||
 8000fc0:	782b      	ldrb	r3, [r5, #0]
 8000fc2:	2b01      	cmp	r3, #1
 8000fc4:	d04e      	beq.n	8001064 <enet_process_rx_ring+0xf8>
        e->dest_addr[1] != 0x00 ||
        e->dest_addr[2] != 0x5e)
      multicast_match = 0;
    //printf("  ucast_match = %d, bcast_match = %d, mcast_match = %d\r\n",
    //       unicast_match, broadcast_match, multicast_match);
    if (unicast_match || multicast_match || broadcast_match)
 8000fc6:	b900      	cbnz	r0, 8000fca <enet_process_rx_ring+0x5e>
 8000fc8:	b129      	cbz	r1, 8000fd6 <enet_process_rx_ring+0x6a>

static void eth_dispatch_eth(const uint8_t *data, const uint16_t len)
{
  // dispatch according to protocol
  const eth_eth_header_t *e = (const eth_eth_header_t *)data;
  switch (eth_htons(e->ethertype))
 8000fca:	89aa      	ldrh	r2, [r5, #12]
 8000fcc:	ba52      	rev16	r2, r2
 8000fce:	b292      	uxth	r2, r2
 8000fd0:	f5b2 6f00 	cmp.w	r2, #2048	; 0x800
 8000fd4:	d00a      	beq.n	8000fec <enet_process_rx_ring+0x80>
      multicast_match = 0;
    //printf("  ucast_match = %d, bcast_match = %d, mcast_match = %d\r\n",
    //       unicast_match, broadcast_match, multicast_match);
    if (unicast_match || multicast_match || broadcast_match)
      eth_dispatch_eth(start, len);
    if (++g_eth_rxpool_ptrs_rpos >= ETH_RAM_RXPOOL_NPTR)
 8000fd6:	8833      	ldrh	r3, [r6, #0]
 8000fd8:	4a31      	ldr	r2, [pc, #196]	; (80010a0 <enet_process_rx_ring+0x134>)
 8000fda:	b29b      	uxth	r3, r3
 8000fdc:	3301      	adds	r3, #1
 8000fde:	b29b      	uxth	r3, r3
 8000fe0:	2b7f      	cmp	r3, #127	; 0x7f
 8000fe2:	8033      	strh	r3, [r6, #0]
      g_eth_rxpool_ptrs_rpos = 0;
 8000fe4:	bf84      	itt	hi
 8000fe6:	2300      	movhi	r3, #0
 8000fe8:	8013      	strhhi	r3, [r2, #0]
 8000fea:	e7c9      	b.n	8000f80 <enet_process_rx_ring+0x14>
}

static void eth_dispatch_ip(const uint8_t *data, const uint16_t len)
{
  const eth_ip_header_t *ip = (const eth_ip_header_t *)data;
  if (ip->version != 4) // we only handle ipv4 (for now...)
 8000fec:	7baa      	ldrb	r2, [r5, #14]
 8000fee:	0912      	lsrs	r2, r2, #4
 8000ff0:	2a04      	cmp	r2, #4
 8000ff2:	d1f0      	bne.n	8000fd6 <enet_process_rx_ring+0x6a>
    return;
  // if it's unicast, verify our IP address, otherwise ignore the packet
  if (ip->eth.dest_addr[0] == g_eth_src_mac[0])
 8000ff4:	2ba4      	cmp	r3, #164	; 0xa4
 8000ff6:	d03f      	beq.n	8001078 <enet_process_rx_ring+0x10c>
    if (ip->source_addr != eth_htonl(g_eth_src_ip))
      return;
  if (ip->proto == ETH_IP_PROTO_UDP)
 8000ff8:	7deb      	ldrb	r3, [r5, #23]
 8000ffa:	2b11      	cmp	r3, #17
 8000ffc:	d1eb      	bne.n	8000fd6 <enet_process_rx_ring+0x6a>

static void eth_dispatch_udp(const uint8_t *data, const uint16_t len)
{
  const eth_udp_header_t *udp = (const eth_udp_header_t *)data;
  const uint16_t port = eth_htons(udp->dest_port);
  const uint16_t payload_len = eth_htons(udp->len) - 8;
 8000ffe:	8ceb      	ldrh	r3, [r5, #38]	; 0x26
}

static void eth_dispatch_udp(const uint8_t *data, const uint16_t len)
{
  const eth_udp_header_t *udp = (const eth_udp_header_t *)data;
  const uint16_t port = eth_htons(udp->dest_port);
 8001000:	8caa      	ldrh	r2, [r5, #36]	; 0x24
 8001002:	ba5b      	rev16	r3, r3
 8001004:	b29b      	uxth	r3, r3
  const uint16_t payload_len = eth_htons(udp->len) - 8;
 8001006:	3b08      	subs	r3, #8
  const uint8_t *payload = data + sizeof(eth_udp_header_t);
  //printf("  udp len: %d\r\n", udp_payload_len);
  if (payload_len > len - sizeof(eth_udp_header_t))
 8001008:	f1ab 0b2a 	sub.w	fp, fp, #42	; 0x2a

static void eth_dispatch_udp(const uint8_t *data, const uint16_t len)
{
  const eth_udp_header_t *udp = (const eth_udp_header_t *)data;
  const uint16_t port = eth_htons(udp->dest_port);
  const uint16_t payload_len = eth_htons(udp->len) - 8;
 800100c:	b29b      	uxth	r3, r3
 800100e:	ba52      	rev16	r2, r2
  const uint8_t *payload = data + sizeof(eth_udp_header_t);
  //printf("  udp len: %d\r\n", udp_payload_len);
  if (payload_len > len - sizeof(eth_udp_header_t))
 8001010:	455b      	cmp	r3, fp
 8001012:	b292      	uxth	r2, r2
 8001014:	d8df      	bhi.n	8000fd6 <enet_process_rx_ring+0x6a>
  for (int i = 0; i < payload_len; i++)
  {
    printf("  %02d: %02x\r\n", i, payload[i]);
  }
  */
  if (port == 11333 && payload_len > 0)
 8001016:	f642 4145 	movw	r1, #11333	; 0x2c45
 800101a:	428a      	cmp	r2, r1
 800101c:	d1db      	bne.n	8000fd6 <enet_process_rx_ring+0x6a>
 800101e:	2b00      	cmp	r3, #0
 8001020:	d0d9      	beq.n	8000fd6 <enet_process_rx_ring+0x6a>
  {
    const uint8_t cmd = payload[0];
 8001022:	f895 202a 	ldrb.w	r2, [r5, #42]	; 0x2a
    //printf("  enet rx cmd = 0x%02x\r\n", cmd);
    if (cmd == 1 && payload_len >= 5)
 8001026:	2a01      	cmp	r2, #1
 8001028:	d02c      	beq.n	8001084 <enet_process_rx_ring+0x118>
             payload[1], payload[2], payload[3], payload[4]);
      */
      for (int i = 0; i < NUM_DMXL; i++)
        dmxl_set_control_mode(i, (dmxl_control_mode_t)payload[1+i]);
    }
    else if (cmd == 2 && payload_len >= 9)
 800102a:	2a02      	cmp	r2, #2
 800102c:	d1d3      	bne.n	8000fd6 <enet_process_rx_ring+0x6a>
 800102e:	2b08      	cmp	r3, #8
 8001030:	d9d1      	bls.n	8000fd6 <enet_process_rx_ring+0x6a>
 8001032:	f105 0208 	add.w	r2, r5, #8
 8001036:	f1ad 0302 	sub.w	r3, sp, #2
    {
      uint16_t targets[NUM_DMXL];
      for (int i = 0; i < NUM_DMXL; i++)
        targets[i] = (payload[1+2*i] << 8) | payload[2+2*i];
 800103a:	f895 002b 	ldrb.w	r0, [r5, #43]	; 0x2b
 800103e:	f895 102c 	ldrb.w	r1, [r5, #44]	; 0x2c
 8001042:	3502      	adds	r5, #2
 8001044:	ea41 2100 	orr.w	r1, r1, r0, lsl #8
        dmxl_set_control_mode(i, (dmxl_control_mode_t)payload[1+i]);
    }
    else if (cmd == 2 && payload_len >= 9)
    {
      uint16_t targets[NUM_DMXL];
      for (int i = 0; i < NUM_DMXL; i++)
 8001048:	4295      	cmp	r5, r2
        targets[i] = (payload[1+2*i] << 8) | payload[2+2*i];
 800104a:	f823 1f02 	strh.w	r1, [r3, #2]!
        dmxl_set_control_mode(i, (dmxl_control_mode_t)payload[1+i]);
    }
    else if (cmd == 2 && payload_len >= 9)
    {
      uint16_t targets[NUM_DMXL];
      for (int i = 0; i < NUM_DMXL; i++)
 800104e:	d1f4      	bne.n	800103a <enet_process_rx_ring+0xce>
 8001050:	2400      	movs	r4, #0
      /*
      printf("targets: %06d %06d %06d %06d\r\n", 
             targets[0], targets[1], targets[2], targets[3]);
      */
      for (int i = 0; i < NUM_DMXL; i++)
        dmxl_set_control_target(i, targets[i]);
 8001052:	b2e0      	uxtb	r0, r4
 8001054:	f83d 1014 	ldrh.w	r1, [sp, r4, lsl #1]
        targets[i] = (payload[1+2*i] << 8) | payload[2+2*i];
      /*
      printf("targets: %06d %06d %06d %06d\r\n", 
             targets[0], targets[1], targets[2], targets[3]);
      */
      for (int i = 0; i < NUM_DMXL; i++)
 8001058:	3401      	adds	r4, #1
        dmxl_set_control_target(i, targets[i]);
 800105a:	f000 fb9d 	bl	8001798 <dmxl_set_control_target>
        targets[i] = (payload[1+2*i] << 8) | payload[2+2*i];
      /*
      printf("targets: %06d %06d %06d %06d\r\n", 
             targets[0], targets[1], targets[2], targets[3]);
      */
      for (int i = 0; i < NUM_DMXL; i++)
 800105e:	2c04      	cmp	r4, #4
 8001060:	d1f7      	bne.n	8001052 <enet_process_rx_ring+0xe6>
 8001062:	e7b8      	b.n	8000fd6 <enet_process_rx_ring+0x6a>
      if (e->dest_addr[i] != g_eth_src_mac[i])
        unicast_match = 0;
      if (e->dest_addr[i] != 0xff)
        broadcast_match = 0;
    }
    if (e->dest_addr[0] != 0x01 ||
 8001064:	786a      	ldrb	r2, [r5, #1]
 8001066:	2a00      	cmp	r2, #0
 8001068:	d1ad      	bne.n	8000fc6 <enet_process_rx_ring+0x5a>
        e->dest_addr[1] != 0x00 ||
 800106a:	78aa      	ldrb	r2, [r5, #2]
 800106c:	2a5e      	cmp	r2, #94	; 0x5e
 800106e:	d1aa      	bne.n	8000fc6 <enet_process_rx_ring+0x5a>
 8001070:	e7ab      	b.n	8000fca <enet_process_rx_ring+0x5e>
    if (unicast_match || multicast_match || broadcast_match)
      eth_dispatch_eth(start, len);
    if (++g_eth_rxpool_ptrs_rpos >= ETH_RAM_RXPOOL_NPTR)
      g_eth_rxpool_ptrs_rpos = 0;
  }
}
 8001072:	b003      	add	sp, #12
 8001074:	e8bd 8ff0 	ldmia.w	sp!, {r4, r5, r6, r7, r8, r9, sl, fp, pc}
  const eth_ip_header_t *ip = (const eth_ip_header_t *)data;
  if (ip->version != 4) // we only handle ipv4 (for now...)
    return;
  // if it's unicast, verify our IP address, otherwise ignore the packet
  if (ip->eth.dest_addr[0] == g_eth_src_mac[0])
    if (ip->source_addr != eth_htonl(g_eth_src_ip))
 8001078:	f8d5 301a 	ldr.w	r3, [r5, #26]
 800107c:	4a0a      	ldr	r2, [pc, #40]	; (80010a8 <enet_process_rx_ring+0x13c>)
 800107e:	4293      	cmp	r3, r2
 8001080:	d1a9      	bne.n	8000fd6 <enet_process_rx_ring+0x6a>
 8001082:	e7b9      	b.n	8000ff8 <enet_process_rx_ring+0x8c>
  */
  if (port == 11333 && payload_len > 0)
  {
    const uint8_t cmd = payload[0];
    //printf("  enet rx cmd = 0x%02x\r\n", cmd);
    if (cmd == 1 && payload_len >= 5)
 8001084:	2b04      	cmp	r3, #4
 8001086:	d9a6      	bls.n	8000fd6 <enet_process_rx_ring+0x6a>
 8001088:	2400      	movs	r4, #0
      /*
      printf("    modes: %d %d %d %d\r\n", 
             payload[1], payload[2], payload[3], payload[4]);
      */
      for (int i = 0; i < NUM_DMXL; i++)
        dmxl_set_control_mode(i, (dmxl_control_mode_t)payload[1+i]);
 800108a:	b2e0      	uxtb	r0, r4
 800108c:	3401      	adds	r4, #1
 800108e:	192b      	adds	r3, r5, r4
 8001090:	f893 102a 	ldrb.w	r1, [r3, #42]	; 0x2a
 8001094:	f000 fb12 	bl	80016bc <dmxl_set_control_mode>
    {
      /*
      printf("    modes: %d %d %d %d\r\n", 
             payload[1], payload[2], payload[3], payload[4]);
      */
      for (int i = 0; i < NUM_DMXL; i++)
 8001098:	2c04      	cmp	r4, #4
 800109a:	d1f6      	bne.n	800108a <enet_process_rx_ring+0x11e>
 800109c:	e79b      	b.n	8000fd6 <enet_process_rx_ring+0x6a>
 800109e:	bf00      	nop
 80010a0:	20008f7a 	.word	0x20008f7a
 80010a4:	20008f78 	.word	0x20008f78
 80010a8:	99ab420a 	.word	0x99ab420a
 80010ac:	20009080 	.word	0x20009080
 80010b0:	20008f7c 	.word	0x20008f7c
 80010b4:	0800903c 	.word	0x0800903c

080010b8 <enet_send_state>:

// todo: be smarter about multicast group choice
#define MCAST_IP 0xe000007c

void enet_send_state()
{
 80010b8:	b510      	push	{r4, lr}
  volatile state_t tx_state = g_state; // make a local copy to ensure coherence
 80010ba:	24ca      	movs	r4, #202	; 0xca

// todo: be smarter about multicast group choice
#define MCAST_IP 0xe000007c

void enet_send_state()
{
 80010bc:	b0b4      	sub	sp, #208	; 0xd0
  volatile state_t tx_state = g_state; // make a local copy to ensure coherence
 80010be:	4622      	mov	r2, r4
 80010c0:	a801      	add	r0, sp, #4
 80010c2:	4906      	ldr	r1, [pc, #24]	; (80010dc <enet_send_state+0x24>)
 80010c4:	f001 f888 	bl	80021d8 <memcpy>
  enet_send_udp_mcast(MCAST_IP, 11333,
 80010c8:	aa01      	add	r2, sp, #4
 80010ca:	4623      	mov	r3, r4
 80010cc:	4804      	ldr	r0, [pc, #16]	; (80010e0 <enet_send_state+0x28>)
 80010ce:	f642 4145 	movw	r1, #11333	; 0x2c45
 80010d2:	f7ff ff29 	bl	8000f28 <enet_send_udp_mcast>
                      (uint8_t *)&tx_state, sizeof(tx_state));
}
 80010d6:	b034      	add	sp, #208	; 0xd0
 80010d8:	bd10      	pop	{r4, pc}
 80010da:	bf00      	nop
 80010dc:	2000fca0 	.word	0x2000fca0
 80010e0:	e000007c 	.word	0xe000007c

080010e4 <systime_init>:
#include "stm32f4xx.h"

void systime_init()
{
  // TIM2 is a 32-bit counter. it just counts microseconds since power-up.
  RCC->APB1ENR |= RCC_APB1ENR_TIM2EN;
 80010e4:	4b0f      	ldr	r3, [pc, #60]	; (8001124 <systime_init+0x40>)
 80010e6:	6c19      	ldr	r1, [r3, #64]	; 0x40
#include "systime.h"
#include "stm32f4xx.h"

void systime_init()
{
 80010e8:	b082      	sub	sp, #8
  // TIM2 is a 32-bit counter. it just counts microseconds since power-up.
  RCC->APB1ENR |= RCC_APB1ENR_TIM2EN;
  for (volatile int i = 0; i < 1000; i++) { } // let tim2 spin up
 80010ea:	2200      	movs	r2, #0
#include "stm32f4xx.h"

void systime_init()
{
  // TIM2 is a 32-bit counter. it just counts microseconds since power-up.
  RCC->APB1ENR |= RCC_APB1ENR_TIM2EN;
 80010ec:	f041 0101 	orr.w	r1, r1, #1
 80010f0:	6419      	str	r1, [r3, #64]	; 0x40
  for (volatile int i = 0; i < 1000; i++) { } // let tim2 spin up
 80010f2:	9201      	str	r2, [sp, #4]
 80010f4:	9b01      	ldr	r3, [sp, #4]
 80010f6:	f5b3 7f7a 	cmp.w	r3, #1000	; 0x3e8
 80010fa:	da06      	bge.n	800110a <systime_init+0x26>
 80010fc:	9b01      	ldr	r3, [sp, #4]
 80010fe:	3301      	adds	r3, #1
 8001100:	9301      	str	r3, [sp, #4]
 8001102:	9b01      	ldr	r3, [sp, #4]
 8001104:	f5b3 7f7a 	cmp.w	r3, #1000	; 0x3e8
 8001108:	dbf8      	blt.n	80010fc <systime_init+0x18>
  TIM2->PSC = 168000000 / 2 / 1000000 - 1; // 83
 800110a:	f04f 4380 	mov.w	r3, #1073741824	; 0x40000000
  TIM2->ARR = 0xffffffff; // count as long as possible
  TIM2->EGR = TIM_EGR_UG; // load the PSC register immediately
 800110e:	2201      	movs	r2, #1
void systime_init()
{
  // TIM2 is a 32-bit counter. it just counts microseconds since power-up.
  RCC->APB1ENR |= RCC_APB1ENR_TIM2EN;
  for (volatile int i = 0; i < 1000; i++) { } // let tim2 spin up
  TIM2->PSC = 168000000 / 2 / 1000000 - 1; // 83
 8001110:	2053      	movs	r0, #83	; 0x53
  TIM2->ARR = 0xffffffff; // count as long as possible
 8001112:	f04f 31ff 	mov.w	r1, #4294967295
void systime_init()
{
  // TIM2 is a 32-bit counter. it just counts microseconds since power-up.
  RCC->APB1ENR |= RCC_APB1ENR_TIM2EN;
  for (volatile int i = 0; i < 1000; i++) { } // let tim2 spin up
  TIM2->PSC = 168000000 / 2 / 1000000 - 1; // 83
 8001116:	8518      	strh	r0, [r3, #40]	; 0x28
  TIM2->ARR = 0xffffffff; // count as long as possible
 8001118:	62d9      	str	r1, [r3, #44]	; 0x2c
  TIM2->EGR = TIM_EGR_UG; // load the PSC register immediately
 800111a:	829a      	strh	r2, [r3, #20]
  TIM2->CR1 = TIM_CR1_CEN; // start counter
 800111c:	801a      	strh	r2, [r3, #0]
}
 800111e:	b002      	add	sp, #8
 8001120:	4770      	bx	lr
 8001122:	bf00      	nop
 8001124:	40023800 	.word	0x40023800

08001128 <dmxl_tx.part.1>:
static void dmxl_tx(const uint8_t port_idx, 
             const uint8_t *payload, const uint8_t payload_len)
{
  if (port_idx >= NUM_DMXL)
    return; // bogus port index
  dmxl_port_t *dp = &g_dmxl_ports[port_idx];
 8001128:	4b20      	ldr	r3, [pc, #128]	; (80011ac <dmxl_tx.part.1+0x84>)
 800112a:	eb00 0040 	add.w	r0, r0, r0, lsl #1
  USART_TypeDef *u = dp->uart;
 800112e:	eb03 03c0 	add.w	r3, r3, r0, lsl #3
  // turn on the 3.3v <-> 5v translator chip now
  GPIOA->MODER |= 1 << (PORTA_DMXL_BUF_EN * 2);
  GPIOA->BSRRL |= 1 << PORTA_DMXL_BUF_EN;
}

static void dmxl_tx(const uint8_t port_idx, 
 8001132:	b4f0      	push	{r4, r5, r6, r7}
             const uint8_t *payload, const uint8_t payload_len)
{
  if (port_idx >= NUM_DMXL)
    return; // bogus port index
  dmxl_port_t *dp = &g_dmxl_ports[port_idx];
  USART_TypeDef *u = dp->uart;
 8001134:	68d8      	ldr	r0, [r3, #12]
  u->CR1 &= ~USART_CR1_RE; // disable the receiver during transmit
 8001136:	8983      	ldrh	r3, [r0, #12]
 8001138:	f023 0304 	bic.w	r3, r3, #4
 800113c:	041b      	lsls	r3, r3, #16
 800113e:	0c1b      	lsrs	r3, r3, #16
 8001140:	8183      	strh	r3, [r0, #12]
  u->CR1 |=  USART_CR1_TE; // enable the transmitter
 8001142:	8983      	ldrh	r3, [r0, #12]
 8001144:	b29b      	uxth	r3, r3
  uint8_t csum = 0;
 8001146:	2600      	movs	r6, #0
  if (port_idx >= NUM_DMXL)
    return; // bogus port index
  dmxl_port_t *dp = &g_dmxl_ports[port_idx];
  USART_TypeDef *u = dp->uart;
  u->CR1 &= ~USART_CR1_RE; // disable the receiver during transmit
  u->CR1 |=  USART_CR1_TE; // enable the transmitter
 8001148:	f043 0308 	orr.w	r3, r3, #8
  uint8_t csum = 0;
  for (uint8_t i = 0; i < payload_len + 3; i++)
 800114c:	3202      	adds	r2, #2
  if (port_idx >= NUM_DMXL)
    return; // bogus port index
  dmxl_port_t *dp = &g_dmxl_ports[port_idx];
  USART_TypeDef *u = dp->uart;
  u->CR1 &= ~USART_CR1_RE; // disable the receiver during transmit
  u->CR1 |=  USART_CR1_TE; // enable the transmitter
 800114e:	8183      	strh	r3, [r0, #12]
  uint8_t csum = 0;
  for (uint8_t i = 0; i < payload_len + 3; i++)
 8001150:	4635      	mov	r5, r6
 8001152:	4634      	mov	r4, r6
  {
    while (!(u->SR & USART_SR_TXE)) { } // wait for tx buffer to clear
    if (i <= 1)
      u->DR = 0xff; // preamble
 8001154:	27ff      	movs	r7, #255	; 0xff
  u->CR1 &= ~USART_CR1_RE; // disable the receiver during transmit
  u->CR1 |=  USART_CR1_TE; // enable the transmitter
  uint8_t csum = 0;
  for (uint8_t i = 0; i < payload_len + 3; i++)
  {
    while (!(u->SR & USART_SR_TXE)) { } // wait for tx buffer to clear
 8001156:	8803      	ldrh	r3, [r0, #0]
 8001158:	061b      	lsls	r3, r3, #24
 800115a:	d5fc      	bpl.n	8001156 <dmxl_tx.part.1+0x2e>
    if (i <= 1)
 800115c:	2c01      	cmp	r4, #1
      // send checksum
      u->DR = ~csum;
    }
    else
    {
      u->DR = payload[i-2]; // send payload byte
 800115e:	f1a4 0302 	sub.w	r3, r4, #2
  u->CR1 |=  USART_CR1_TE; // enable the transmitter
  uint8_t csum = 0;
  for (uint8_t i = 0; i < payload_len + 3; i++)
  {
    while (!(u->SR & USART_SR_TXE)) { } // wait for tx buffer to clear
    if (i <= 1)
 8001162:	d91b      	bls.n	800119c <dmxl_tx.part.1+0x74>
      u->DR = 0xff; // preamble
    else if (i == payload_len + 2)
 8001164:	42aa      	cmp	r2, r5
 8001166:	d01b      	beq.n	80011a0 <dmxl_tx.part.1+0x78>
      // send checksum
      u->DR = ~csum;
    }
    else
    {
      u->DR = payload[i-2]; // send payload byte
 8001168:	5ccd      	ldrb	r5, [r1, r3]
 800116a:	8085      	strh	r5, [r0, #4]
      csum += payload[i-2];
 800116c:	5ccb      	ldrb	r3, [r1, r3]
 800116e:	441e      	add	r6, r3
 8001170:	b2f6      	uxtb	r6, r6
  dmxl_port_t *dp = &g_dmxl_ports[port_idx];
  USART_TypeDef *u = dp->uart;
  u->CR1 &= ~USART_CR1_RE; // disable the receiver during transmit
  u->CR1 |=  USART_CR1_TE; // enable the transmitter
  uint8_t csum = 0;
  for (uint8_t i = 0; i < payload_len + 3; i++)
 8001172:	3401      	adds	r4, #1
 8001174:	b2e4      	uxtb	r4, r4
 8001176:	4294      	cmp	r4, r2
 8001178:	4625      	mov	r5, r4
 800117a:	ddec      	ble.n	8001156 <dmxl_tx.part.1+0x2e>
    {
      u->DR = payload[i-2]; // send payload byte
      csum += payload[i-2];
    }
  }
  while (!(u->SR & USART_SR_TC)) { } // wait for TX to finish
 800117c:	8803      	ldrh	r3, [r0, #0]
 800117e:	065b      	lsls	r3, r3, #25
 8001180:	d5fc      	bpl.n	800117c <dmxl_tx.part.1+0x54>
  u->CR1 &= ~USART_CR1_TE; // disable the transmitter
 8001182:	8983      	ldrh	r3, [r0, #12]
 8001184:	f023 0308 	bic.w	r3, r3, #8
 8001188:	041b      	lsls	r3, r3, #16
 800118a:	0c1b      	lsrs	r3, r3, #16
 800118c:	8183      	strh	r3, [r0, #12]
  u->CR1 |=  USART_CR1_RE; // re-enable the transmitter
 800118e:	8983      	ldrh	r3, [r0, #12]
 8001190:	b29b      	uxth	r3, r3
 8001192:	f043 0304 	orr.w	r3, r3, #4
 8001196:	8183      	strh	r3, [r0, #12]
  // todo: actually spin here until we get a packet back in the rx ring
}
 8001198:	bcf0      	pop	{r4, r5, r6, r7}
 800119a:	4770      	bx	lr
  uint8_t csum = 0;
  for (uint8_t i = 0; i < payload_len + 3; i++)
  {
    while (!(u->SR & USART_SR_TXE)) { } // wait for tx buffer to clear
    if (i <= 1)
      u->DR = 0xff; // preamble
 800119c:	8087      	strh	r7, [r0, #4]
 800119e:	e7e8      	b.n	8001172 <dmxl_tx.part.1+0x4a>
    else if (i == payload_len + 2)
    {
      // send checksum
      u->DR = ~csum;
 80011a0:	f486 437f 	eor.w	r3, r6, #65280	; 0xff00
 80011a4:	f083 03ff 	eor.w	r3, r3, #255	; 0xff
 80011a8:	8083      	strh	r3, [r0, #4]
 80011aa:	e7e2      	b.n	8001172 <dmxl_tx.part.1+0x4a>
 80011ac:	2000000c 	.word	0x2000000c

080011b0 <dmxl_write_data>:
}

static void dmxl_write_data(const uint8_t port_idx, const uint8_t dmxl_id,
                            const uint8_t data_len, const uint8_t start_addr, 
                            const uint8_t *data)
{
 80011b0:	b530      	push	{r4, r5, lr}
 80011b2:	b0c1      	sub	sp, #260	; 0x104
  uint8_t pkt[255];
  pkt[0] = dmxl_id;
  pkt[1] = data_len + 3;
 80011b4:	1cd5      	adds	r5, r2, #3
  pkt[2] = 3; // instruction: "write data"
 80011b6:	2403      	movs	r4, #3
                            const uint8_t data_len, const uint8_t start_addr, 
                            const uint8_t *data)
{
  uint8_t pkt[255];
  pkt[0] = dmxl_id;
  pkt[1] = data_len + 3;
 80011b8:	f88d 5001 	strb.w	r5, [sp, #1]
  pkt[2] = 3; // instruction: "write data"
  pkt[3] = start_addr;
 80011bc:	f88d 3003 	strb.w	r3, [sp, #3]
static void dmxl_write_data(const uint8_t port_idx, const uint8_t dmxl_id,
                            const uint8_t data_len, const uint8_t start_addr, 
                            const uint8_t *data)
{
  uint8_t pkt[255];
  pkt[0] = dmxl_id;
 80011c0:	f88d 1000 	strb.w	r1, [sp]
  pkt[1] = data_len + 3;
  pkt[2] = 3; // instruction: "write data"
 80011c4:	f88d 4002 	strb.w	r4, [sp, #2]
}

static void dmxl_write_data(const uint8_t port_idx, const uint8_t dmxl_id,
                            const uint8_t data_len, const uint8_t start_addr, 
                            const uint8_t *data)
{
 80011c8:	9d44      	ldr	r5, [sp, #272]	; 0x110
  uint8_t pkt[255];
  pkt[0] = dmxl_id;
  pkt[1] = data_len + 3;
  pkt[2] = 3; // instruction: "write data"
  pkt[3] = start_addr;
  for (int i = 0; i < data_len; i++)
 80011ca:	2300      	movs	r3, #0
 80011cc:	b132      	cbz	r2, 80011dc <dmxl_write_data+0x2c>
 80011ce:	a900      	add	r1, sp, #0
 80011d0:	4419      	add	r1, r3
    pkt[4+i] = data[i];
 80011d2:	5cec      	ldrb	r4, [r5, r3]
 80011d4:	710c      	strb	r4, [r1, #4]
  uint8_t pkt[255];
  pkt[0] = dmxl_id;
  pkt[1] = data_len + 3;
  pkt[2] = 3; // instruction: "write data"
  pkt[3] = start_addr;
  for (int i = 0; i < data_len; i++)
 80011d6:	3301      	adds	r3, #1
 80011d8:	4293      	cmp	r3, r2
 80011da:	d1f8      	bne.n	80011ce <dmxl_write_data+0x1e>
}

static void dmxl_tx(const uint8_t port_idx, 
             const uint8_t *payload, const uint8_t payload_len)
{
  if (port_idx >= NUM_DMXL)
 80011dc:	2803      	cmp	r0, #3
 80011de:	d804      	bhi.n	80011ea <dmxl_write_data+0x3a>
  pkt[1] = data_len + 3;
  pkt[2] = 3; // instruction: "write data"
  pkt[3] = start_addr;
  for (int i = 0; i < data_len; i++)
    pkt[4+i] = data[i];
  dmxl_tx(port_idx, pkt, data_len + 4);
 80011e0:	3204      	adds	r2, #4
 80011e2:	b2d2      	uxtb	r2, r2
 80011e4:	4669      	mov	r1, sp
 80011e6:	f7ff ff9f 	bl	8001128 <dmxl_tx.part.1>
}
 80011ea:	b041      	add	sp, #260	; 0x104
 80011ec:	bd30      	pop	{r4, r5, pc}
 80011ee:	bf00      	nop

080011f0 <dmxl_read_data.constprop.2>:

static void dmxl_read_data(const uint8_t port_idx, const uint8_t dmxl_id,
 80011f0:	b530      	push	{r4, r5, lr}
 80011f2:	b0c1      	sub	sp, #260	; 0x104
                           const uint8_t data_len, const uint8_t start_addr)
{
  uint8_t pkt[255];
  pkt[0] = dmxl_id;
 80011f4:	2501      	movs	r5, #1
  pkt[1] = 4; // this packet's "length" is 4
 80011f6:	2404      	movs	r4, #4
  pkt[2] = 2; // instruction: "read data"
 80011f8:	2102      	movs	r1, #2
  pkt[3] = start_addr;
 80011fa:	2224      	movs	r2, #36	; 0x24
  pkt[4] = data_len;
 80011fc:	2308      	movs	r3, #8
}

static void dmxl_tx(const uint8_t port_idx, 
             const uint8_t *payload, const uint8_t payload_len)
{
  if (port_idx >= NUM_DMXL)
 80011fe:	2803      	cmp	r0, #3

static void dmxl_read_data(const uint8_t port_idx, const uint8_t dmxl_id,
                           const uint8_t data_len, const uint8_t start_addr)
{
  uint8_t pkt[255];
  pkt[0] = dmxl_id;
 8001200:	f88d 5000 	strb.w	r5, [sp]
  pkt[1] = 4; // this packet's "length" is 4
 8001204:	f88d 4001 	strb.w	r4, [sp, #1]
  pkt[2] = 2; // instruction: "read data"
 8001208:	f88d 1002 	strb.w	r1, [sp, #2]
  pkt[3] = start_addr;
 800120c:	f88d 2003 	strb.w	r2, [sp, #3]
  pkt[4] = data_len;
 8001210:	f88d 3004 	strb.w	r3, [sp, #4]
}

static void dmxl_tx(const uint8_t port_idx, 
             const uint8_t *payload, const uint8_t payload_len)
{
  if (port_idx >= NUM_DMXL)
 8001214:	d803      	bhi.n	800121e <dmxl_read_data.constprop.2+0x2e>
 8001216:	4669      	mov	r1, sp
 8001218:	2205      	movs	r2, #5
 800121a:	f7ff ff85 	bl	8001128 <dmxl_tx.part.1>
  pkt[1] = 4; // this packet's "length" is 4
  pkt[2] = 2; // instruction: "read data"
  pkt[3] = start_addr;
  pkt[4] = data_len;
  dmxl_tx(port_idx, pkt, 5);
}
 800121e:	b041      	add	sp, #260	; 0x104
 8001220:	bd30      	pop	{r4, r5, pc}
 8001222:	bf00      	nop

08001224 <usart3_vector>:
    g_dmxl_ring_wpos[dmxl_port] = 0;
}

void usart3_vector()
{
  volatile uint8_t __attribute__((unused)) sr = USART3->SR; // clear overruns
 8001224:	4a0b      	ldr	r2, [pc, #44]	; (8001254 <usart3_vector+0x30>)
// put in ramfunc sector ?
static inline void dmxl_push_byte(const uint8_t dmxl_port, const uint8_t byte) 
{
  if (dmxl_port >= NUM_DMXL)
    return;
  g_dmxl_ring[dmxl_port][g_dmxl_ring_wpos[dmxl_port]] = byte;
 8001226:	4b0c      	ldr	r3, [pc, #48]	; (8001258 <usart3_vector+0x34>)
    g_dmxl_ring_wpos[dmxl_port] = 0;
}

void usart3_vector()
{
  volatile uint8_t __attribute__((unused)) sr = USART3->SR; // clear overruns
 8001228:	8810      	ldrh	r0, [r2, #0]
// put in ramfunc sector ?
static inline void dmxl_push_byte(const uint8_t dmxl_port, const uint8_t byte) 
{
  if (dmxl_port >= NUM_DMXL)
    return;
  g_dmxl_ring[dmxl_port][g_dmxl_ring_wpos[dmxl_port]] = byte;
 800122a:	490c      	ldr	r1, [pc, #48]	; (800125c <usart3_vector+0x38>)
  if (++g_dmxl_ring_wpos[dmxl_port] >= DMXL_RING_LEN)
    g_dmxl_ring_wpos[dmxl_port] = 0;
}

void usart3_vector()
{
 800122c:	b082      	sub	sp, #8
  volatile uint8_t __attribute__((unused)) sr = USART3->SR; // clear overruns
 800122e:	b2c0      	uxtb	r0, r0
 8001230:	f88d 0007 	strb.w	r0, [sp, #7]
  dmxl_push_byte(0, USART3->DR);
 8001234:	8890      	ldrh	r0, [r2, #4]
// put in ramfunc sector ?
static inline void dmxl_push_byte(const uint8_t dmxl_port, const uint8_t byte) 
{
  if (dmxl_port >= NUM_DMXL)
    return;
  g_dmxl_ring[dmxl_port][g_dmxl_ring_wpos[dmxl_port]] = byte;
 8001236:	881a      	ldrh	r2, [r3, #0]
 8001238:	b292      	uxth	r2, r2
}

void usart3_vector()
{
  volatile uint8_t __attribute__((unused)) sr = USART3->SR; // clear overruns
  dmxl_push_byte(0, USART3->DR);
 800123a:	b2c0      	uxtb	r0, r0
// put in ramfunc sector ?
static inline void dmxl_push_byte(const uint8_t dmxl_port, const uint8_t byte) 
{
  if (dmxl_port >= NUM_DMXL)
    return;
  g_dmxl_ring[dmxl_port][g_dmxl_ring_wpos[dmxl_port]] = byte;
 800123c:	5488      	strb	r0, [r1, r2]
  if (++g_dmxl_ring_wpos[dmxl_port] >= DMXL_RING_LEN)
 800123e:	881a      	ldrh	r2, [r3, #0]
 8001240:	b292      	uxth	r2, r2
 8001242:	3201      	adds	r2, #1
 8001244:	b292      	uxth	r2, r2
 8001246:	2aff      	cmp	r2, #255	; 0xff
 8001248:	801a      	strh	r2, [r3, #0]
    g_dmxl_ring_wpos[dmxl_port] = 0;
 800124a:	bf84      	itt	hi
 800124c:	2200      	movhi	r2, #0
 800124e:	801a      	strhhi	r2, [r3, #0]

void usart3_vector()
{
  volatile uint8_t __attribute__((unused)) sr = USART3->SR; // clear overruns
  dmxl_push_byte(0, USART3->DR);
}
 8001250:	b002      	add	sp, #8
 8001252:	4770      	bx	lr
 8001254:	40004800 	.word	0x40004800
 8001258:	2000f380 	.word	0x2000f380
 800125c:	2000f788 	.word	0x2000f788

08001260 <uart4_vector>:

void uart4_vector()
{
  volatile uint8_t __attribute__((unused)) sr = UART4->SR; // clear overruns
 8001260:	4a0c      	ldr	r2, [pc, #48]	; (8001294 <uart4_vector+0x34>)
// put in ramfunc sector ?
static inline void dmxl_push_byte(const uint8_t dmxl_port, const uint8_t byte) 
{
  if (dmxl_port >= NUM_DMXL)
    return;
  g_dmxl_ring[dmxl_port][g_dmxl_ring_wpos[dmxl_port]] = byte;
 8001262:	4b0d      	ldr	r3, [pc, #52]	; (8001298 <uart4_vector+0x38>)
  dmxl_push_byte(0, USART3->DR);
}

void uart4_vector()
{
  volatile uint8_t __attribute__((unused)) sr = UART4->SR; // clear overruns
 8001264:	8811      	ldrh	r1, [r2, #0]
// put in ramfunc sector ?
static inline void dmxl_push_byte(const uint8_t dmxl_port, const uint8_t byte) 
{
  if (dmxl_port >= NUM_DMXL)
    return;
  g_dmxl_ring[dmxl_port][g_dmxl_ring_wpos[dmxl_port]] = byte;
 8001266:	480d      	ldr	r0, [pc, #52]	; (800129c <uart4_vector+0x3c>)
  volatile uint8_t __attribute__((unused)) sr = USART3->SR; // clear overruns
  dmxl_push_byte(0, USART3->DR);
}

void uart4_vector()
{
 8001268:	b082      	sub	sp, #8
  volatile uint8_t __attribute__((unused)) sr = UART4->SR; // clear overruns
 800126a:	b2c9      	uxtb	r1, r1
 800126c:	f88d 1007 	strb.w	r1, [sp, #7]
  dmxl_push_byte(1, UART4->DR);
 8001270:	8891      	ldrh	r1, [r2, #4]
// put in ramfunc sector ?
static inline void dmxl_push_byte(const uint8_t dmxl_port, const uint8_t byte) 
{
  if (dmxl_port >= NUM_DMXL)
    return;
  g_dmxl_ring[dmxl_port][g_dmxl_ring_wpos[dmxl_port]] = byte;
 8001272:	885a      	ldrh	r2, [r3, #2]
 8001274:	fa10 f282 	uxtah	r2, r0, r2
}

void uart4_vector()
{
  volatile uint8_t __attribute__((unused)) sr = UART4->SR; // clear overruns
  dmxl_push_byte(1, UART4->DR);
 8001278:	b2c9      	uxtb	r1, r1
// put in ramfunc sector ?
static inline void dmxl_push_byte(const uint8_t dmxl_port, const uint8_t byte) 
{
  if (dmxl_port >= NUM_DMXL)
    return;
  g_dmxl_ring[dmxl_port][g_dmxl_ring_wpos[dmxl_port]] = byte;
 800127a:	f882 1100 	strb.w	r1, [r2, #256]	; 0x100
  if (++g_dmxl_ring_wpos[dmxl_port] >= DMXL_RING_LEN)
 800127e:	885a      	ldrh	r2, [r3, #2]
 8001280:	b292      	uxth	r2, r2
 8001282:	3201      	adds	r2, #1
 8001284:	b292      	uxth	r2, r2
 8001286:	2aff      	cmp	r2, #255	; 0xff
 8001288:	805a      	strh	r2, [r3, #2]
    g_dmxl_ring_wpos[dmxl_port] = 0;
 800128a:	bf84      	itt	hi
 800128c:	2200      	movhi	r2, #0
 800128e:	805a      	strhhi	r2, [r3, #2]

void uart4_vector()
{
  volatile uint8_t __attribute__((unused)) sr = UART4->SR; // clear overruns
  dmxl_push_byte(1, UART4->DR);
}
 8001290:	b002      	add	sp, #8
 8001292:	4770      	bx	lr
 8001294:	40004c00 	.word	0x40004c00
 8001298:	2000f380 	.word	0x2000f380
 800129c:	2000f788 	.word	0x2000f788

080012a0 <uart5_vector>:

void uart5_vector()
{
  volatile uint8_t __attribute__((unused)) sr = UART5->SR; // clear overruns
 80012a0:	4a0c      	ldr	r2, [pc, #48]	; (80012d4 <uart5_vector+0x34>)
// put in ramfunc sector ?
static inline void dmxl_push_byte(const uint8_t dmxl_port, const uint8_t byte) 
{
  if (dmxl_port >= NUM_DMXL)
    return;
  g_dmxl_ring[dmxl_port][g_dmxl_ring_wpos[dmxl_port]] = byte;
 80012a2:	4b0d      	ldr	r3, [pc, #52]	; (80012d8 <uart5_vector+0x38>)
  dmxl_push_byte(1, UART4->DR);
}

void uart5_vector()
{
  volatile uint8_t __attribute__((unused)) sr = UART5->SR; // clear overruns
 80012a4:	8811      	ldrh	r1, [r2, #0]
// put in ramfunc sector ?
static inline void dmxl_push_byte(const uint8_t dmxl_port, const uint8_t byte) 
{
  if (dmxl_port >= NUM_DMXL)
    return;
  g_dmxl_ring[dmxl_port][g_dmxl_ring_wpos[dmxl_port]] = byte;
 80012a6:	480d      	ldr	r0, [pc, #52]	; (80012dc <uart5_vector+0x3c>)
  volatile uint8_t __attribute__((unused)) sr = UART4->SR; // clear overruns
  dmxl_push_byte(1, UART4->DR);
}

void uart5_vector()
{
 80012a8:	b082      	sub	sp, #8
  volatile uint8_t __attribute__((unused)) sr = UART5->SR; // clear overruns
 80012aa:	b2c9      	uxtb	r1, r1
 80012ac:	f88d 1007 	strb.w	r1, [sp, #7]
  dmxl_push_byte(3, UART5->DR);
 80012b0:	8891      	ldrh	r1, [r2, #4]
// put in ramfunc sector ?
static inline void dmxl_push_byte(const uint8_t dmxl_port, const uint8_t byte) 
{
  if (dmxl_port >= NUM_DMXL)
    return;
  g_dmxl_ring[dmxl_port][g_dmxl_ring_wpos[dmxl_port]] = byte;
 80012b2:	88da      	ldrh	r2, [r3, #6]
 80012b4:	fa10 f282 	uxtah	r2, r0, r2
}

void uart5_vector()
{
  volatile uint8_t __attribute__((unused)) sr = UART5->SR; // clear overruns
  dmxl_push_byte(3, UART5->DR);
 80012b8:	b2c9      	uxtb	r1, r1
// put in ramfunc sector ?
static inline void dmxl_push_byte(const uint8_t dmxl_port, const uint8_t byte) 
{
  if (dmxl_port >= NUM_DMXL)
    return;
  g_dmxl_ring[dmxl_port][g_dmxl_ring_wpos[dmxl_port]] = byte;
 80012ba:	f882 1300 	strb.w	r1, [r2, #768]	; 0x300
  if (++g_dmxl_ring_wpos[dmxl_port] >= DMXL_RING_LEN)
 80012be:	88da      	ldrh	r2, [r3, #6]
 80012c0:	b292      	uxth	r2, r2
 80012c2:	3201      	adds	r2, #1
 80012c4:	b292      	uxth	r2, r2
 80012c6:	2aff      	cmp	r2, #255	; 0xff
 80012c8:	80da      	strh	r2, [r3, #6]
    g_dmxl_ring_wpos[dmxl_port] = 0;
 80012ca:	bf84      	itt	hi
 80012cc:	2200      	movhi	r2, #0
 80012ce:	80da      	strhhi	r2, [r3, #6]

void uart5_vector()
{
  volatile uint8_t __attribute__((unused)) sr = UART5->SR; // clear overruns
  dmxl_push_byte(3, UART5->DR);
}
 80012d0:	b002      	add	sp, #8
 80012d2:	4770      	bx	lr
 80012d4:	40005000 	.word	0x40005000
 80012d8:	2000f380 	.word	0x2000f380
 80012dc:	2000f788 	.word	0x2000f788

080012e0 <usart6_vector>:

void usart6_vector()
{
  volatile uint8_t __attribute__((unused)) sr = USART6->SR; // clear overruns
 80012e0:	4a0c      	ldr	r2, [pc, #48]	; (8001314 <usart6_vector+0x34>)
// put in ramfunc sector ?
static inline void dmxl_push_byte(const uint8_t dmxl_port, const uint8_t byte) 
{
  if (dmxl_port >= NUM_DMXL)
    return;
  g_dmxl_ring[dmxl_port][g_dmxl_ring_wpos[dmxl_port]] = byte;
 80012e2:	4b0d      	ldr	r3, [pc, #52]	; (8001318 <usart6_vector+0x38>)
  dmxl_push_byte(3, UART5->DR);
}

void usart6_vector()
{
  volatile uint8_t __attribute__((unused)) sr = USART6->SR; // clear overruns
 80012e4:	8811      	ldrh	r1, [r2, #0]
// put in ramfunc sector ?
static inline void dmxl_push_byte(const uint8_t dmxl_port, const uint8_t byte) 
{
  if (dmxl_port >= NUM_DMXL)
    return;
  g_dmxl_ring[dmxl_port][g_dmxl_ring_wpos[dmxl_port]] = byte;
 80012e6:	480d      	ldr	r0, [pc, #52]	; (800131c <usart6_vector+0x3c>)
  volatile uint8_t __attribute__((unused)) sr = UART5->SR; // clear overruns
  dmxl_push_byte(3, UART5->DR);
}

void usart6_vector()
{
 80012e8:	b082      	sub	sp, #8
  volatile uint8_t __attribute__((unused)) sr = USART6->SR; // clear overruns
 80012ea:	b2c9      	uxtb	r1, r1
 80012ec:	f88d 1007 	strb.w	r1, [sp, #7]
  dmxl_push_byte(2, USART6->DR);
 80012f0:	8891      	ldrh	r1, [r2, #4]
// put in ramfunc sector ?
static inline void dmxl_push_byte(const uint8_t dmxl_port, const uint8_t byte) 
{
  if (dmxl_port >= NUM_DMXL)
    return;
  g_dmxl_ring[dmxl_port][g_dmxl_ring_wpos[dmxl_port]] = byte;
 80012f2:	889a      	ldrh	r2, [r3, #4]
 80012f4:	fa10 f282 	uxtah	r2, r0, r2
}

void usart6_vector()
{
  volatile uint8_t __attribute__((unused)) sr = USART6->SR; // clear overruns
  dmxl_push_byte(2, USART6->DR);
 80012f8:	b2c9      	uxtb	r1, r1
// put in ramfunc sector ?
static inline void dmxl_push_byte(const uint8_t dmxl_port, const uint8_t byte) 
{
  if (dmxl_port >= NUM_DMXL)
    return;
  g_dmxl_ring[dmxl_port][g_dmxl_ring_wpos[dmxl_port]] = byte;
 80012fa:	f882 1200 	strb.w	r1, [r2, #512]	; 0x200
  if (++g_dmxl_ring_wpos[dmxl_port] >= DMXL_RING_LEN)
 80012fe:	889a      	ldrh	r2, [r3, #4]
 8001300:	b292      	uxth	r2, r2
 8001302:	3201      	adds	r2, #1
 8001304:	b292      	uxth	r2, r2
 8001306:	2aff      	cmp	r2, #255	; 0xff
 8001308:	809a      	strh	r2, [r3, #4]
    g_dmxl_ring_wpos[dmxl_port] = 0;
 800130a:	bf84      	itt	hi
 800130c:	2200      	movhi	r2, #0
 800130e:	809a      	strhhi	r2, [r3, #4]

void usart6_vector()
{
  volatile uint8_t __attribute__((unused)) sr = USART6->SR; // clear overruns
  dmxl_push_byte(2, USART6->DR);
}
 8001310:	b002      	add	sp, #8
 8001312:	4770      	bx	lr
 8001314:	40011400 	.word	0x40011400
 8001318:	2000f380 	.word	0x2000f380
 800131c:	2000f788 	.word	0x2000f788

08001320 <dmxl_init>:

void dmxl_init()
{
 8001320:	e92d 43f8 	stmdb	sp!, {r3, r4, r5, r6, r7, r8, r9, lr}
  printf("dmxl_init()\r\n");
 8001324:	4849      	ldr	r0, [pc, #292]	; (800144c <dmxl_init+0x12c>)

    USART_TypeDef *u = dp->uart;
    u->CR1 &= ~USART_CR1_UE; // make sure it's off while we configure it
    u->CR1 |=  USART_CR1_RE; // don't enable the transmitter yet
    // set to the default baud rate: 57600
    if (u == USART6)
 8001326:	4d4a      	ldr	r5, [pc, #296]	; (8001450 <dmxl_init+0x130>)
  dmxl_push_byte(2, USART6->DR);
}

void dmxl_init()
{
  printf("dmxl_init()\r\n");
 8001328:	f001 f88c 	bl	8002444 <puts>
  RCC->AHB1ENR |= RCC_AHB1ENR_GPIOAEN |
 800132c:	4a49      	ldr	r2, [pc, #292]	; (8001454 <dmxl_init+0x134>)
 800132e:	4b4a      	ldr	r3, [pc, #296]	; (8001458 <dmxl_init+0x138>)
 8001330:	6b11      	ldr	r1, [r2, #48]	; 0x30
 8001332:	f041 010d 	orr.w	r1, r1, #13
 8001336:	6311      	str	r1, [r2, #48]	; 0x30
                  RCC_AHB1ENR_GPIOCEN |
                  RCC_AHB1ENR_GPIODEN;
  RCC->APB1ENR |= RCC_APB1ENR_USART3EN |
 8001338:	6c11      	ldr	r1, [r2, #64]	; 0x40
 800133a:	f441 11e0 	orr.w	r1, r1, #1835008	; 0x1c0000
 800133e:	6411      	str	r1, [r2, #64]	; 0x40
                  RCC_APB1ENR_UART4EN  |
                  RCC_APB1ENR_UART5EN;
  RCC->APB2ENR |= RCC_APB2ENR_USART6EN;
 8001340:	6c51      	ldr	r1, [r2, #68]	; 0x44
 8001342:	f041 0120 	orr.w	r1, r1, #32
 8001346:	6451      	str	r1, [r2, #68]	; 0x44
 8001348:	f103 0660 	add.w	r6, r3, #96	; 0x60

  for (int i = 0; i < NUM_DMXL; i++)
  {
    dmxl_port_t *dp = &g_dmxl_ports[i];
    dp->tx_gpio->MODER |= (uint32_t)2 << (dp->tx_pin * 2); // set as AF
 800134c:	2402      	movs	r4, #2
    u->CR1 |=  USART_CR1_RE; // don't enable the transmitter yet
    // set to the default baud rate: 57600
    if (u == USART6)
      u->BRR = (((uint16_t)91) << 4) | 2; 
    else
      u->BRR = (((uint16_t)45) << 4) | 9;
 800134e:	f240 27d9 	movw	r7, #729	; 0x2d9
    USART_TypeDef *u = dp->uart;
    u->CR1 &= ~USART_CR1_UE; // make sure it's off while we configure it
    u->CR1 |=  USART_CR1_RE; // don't enable the transmitter yet
    // set to the default baud rate: 57600
    if (u == USART6)
      u->BRR = (((uint16_t)91) << 4) | 2; 
 8001352:	f240 5cb2 	movw	ip, #1458	; 0x5b2
  RCC->APB2ENR |= RCC_APB2ENR_USART6EN;

  for (int i = 0; i < NUM_DMXL; i++)
  {
    dmxl_port_t *dp = &g_dmxl_ports[i];
    dp->tx_gpio->MODER |= (uint32_t)2 << (dp->tx_pin * 2); // set as AF
 8001356:	7a1a      	ldrb	r2, [r3, #8]
 8001358:	6819      	ldr	r1, [r3, #0]
 800135a:	0052      	lsls	r2, r2, #1
 800135c:	6808      	ldr	r0, [r1, #0]
 800135e:	fa04 f202 	lsl.w	r2, r4, r2
 8001362:	4302      	orrs	r2, r0
 8001364:	600a      	str	r2, [r1, #0]
    dp->rx_gpio->MODER |= (uint32_t)2 << (dp->rx_pin * 2); // set as AF
 8001366:	f893 8009 	ldrb.w	r8, [r3, #9]
 800136a:	685a      	ldr	r2, [r3, #4]
 800136c:	ea4f 0848 	mov.w	r8, r8, lsl #1
 8001370:	6810      	ldr	r0, [r2, #0]
 8001372:	fa04 f808 	lsl.w	r8, r4, r8
 8001376:	ea48 0000 	orr.w	r0, r8, r0
 800137a:	6010      	str	r0, [r2, #0]

    if (dp->tx_pin >= 8)
 800137c:	7a18      	ldrb	r0, [r3, #8]
      dp->tx_gpio->AFR[1] |= (uint32_t)dp->af << ((dp->tx_pin - 8) * 4);
 800137e:	f893 900a 	ldrb.w	r9, [r3, #10]
 8001382:	f1a0 0808 	sub.w	r8, r0, #8
  {
    dmxl_port_t *dp = &g_dmxl_ports[i];
    dp->tx_gpio->MODER |= (uint32_t)2 << (dp->tx_pin * 2); // set as AF
    dp->rx_gpio->MODER |= (uint32_t)2 << (dp->rx_pin * 2); // set as AF

    if (dp->tx_pin >= 8)
 8001386:	2807      	cmp	r0, #7
      dp->tx_gpio->AFR[1] |= (uint32_t)dp->af << ((dp->tx_pin - 8) * 4);
 8001388:	ea4f 0888 	mov.w	r8, r8, lsl #2
    else
      dp->tx_gpio->AFR[0] |= (uint32_t)dp->af << (dp->tx_pin * 4);
 800138c:	ea4f 0080 	mov.w	r0, r0, lsl #2
  {
    dmxl_port_t *dp = &g_dmxl_ports[i];
    dp->tx_gpio->MODER |= (uint32_t)2 << (dp->tx_pin * 2); // set as AF
    dp->rx_gpio->MODER |= (uint32_t)2 << (dp->rx_pin * 2); // set as AF

    if (dp->tx_pin >= 8)
 8001390:	d954      	bls.n	800143c <dmxl_init+0x11c>
      dp->tx_gpio->AFR[1] |= (uint32_t)dp->af << ((dp->tx_pin - 8) * 4);
 8001392:	6a48      	ldr	r0, [r1, #36]	; 0x24
 8001394:	fa09 f808 	lsl.w	r8, r9, r8
 8001398:	ea48 0000 	orr.w	r0, r8, r0
 800139c:	6248      	str	r0, [r1, #36]	; 0x24
    else
      dp->tx_gpio->AFR[0] |= (uint32_t)dp->af << (dp->tx_pin * 4);

    if (dp->rx_pin >= 8)
 800139e:	7a59      	ldrb	r1, [r3, #9]
      dp->rx_gpio->AFR[1] |= (uint32_t)dp->af << ((dp->rx_pin - 8) * 4);
 80013a0:	f893 800a 	ldrb.w	r8, [r3, #10]
 80013a4:	f1a1 0008 	sub.w	r0, r1, #8
    if (dp->tx_pin >= 8)
      dp->tx_gpio->AFR[1] |= (uint32_t)dp->af << ((dp->tx_pin - 8) * 4);
    else
      dp->tx_gpio->AFR[0] |= (uint32_t)dp->af << (dp->tx_pin * 4);

    if (dp->rx_pin >= 8)
 80013a8:	2907      	cmp	r1, #7
      dp->rx_gpio->AFR[1] |= (uint32_t)dp->af << ((dp->rx_pin - 8) * 4);
 80013aa:	ea4f 0080 	mov.w	r0, r0, lsl #2
    else
      dp->rx_gpio->AFR[0] |= (uint32_t)dp->af << (dp->rx_pin * 4);
 80013ae:	ea4f 0181 	mov.w	r1, r1, lsl #2
    if (dp->tx_pin >= 8)
      dp->tx_gpio->AFR[1] |= (uint32_t)dp->af << ((dp->tx_pin - 8) * 4);
    else
      dp->tx_gpio->AFR[0] |= (uint32_t)dp->af << (dp->tx_pin * 4);

    if (dp->rx_pin >= 8)
 80013b2:	d93d      	bls.n	8001430 <dmxl_init+0x110>
      dp->rx_gpio->AFR[1] |= (uint32_t)dp->af << ((dp->rx_pin - 8) * 4);
 80013b4:	6a51      	ldr	r1, [r2, #36]	; 0x24
 80013b6:	fa08 f000 	lsl.w	r0, r8, r0
 80013ba:	4308      	orrs	r0, r1
 80013bc:	6250      	str	r0, [r2, #36]	; 0x24
    else
      dp->rx_gpio->AFR[0] |= (uint32_t)dp->af << (dp->rx_pin * 4);

    USART_TypeDef *u = dp->uart;
 80013be:	68da      	ldr	r2, [r3, #12]
    u->CR1 &= ~USART_CR1_UE; // make sure it's off while we configure it
 80013c0:	8991      	ldrh	r1, [r2, #12]
 80013c2:	f421 5100 	bic.w	r1, r1, #8192	; 0x2000
 80013c6:	0409      	lsls	r1, r1, #16
 80013c8:	0c09      	lsrs	r1, r1, #16
 80013ca:	8191      	strh	r1, [r2, #12]
    u->CR1 |=  USART_CR1_RE; // don't enable the transmitter yet
 80013cc:	8991      	ldrh	r1, [r2, #12]
 80013ce:	b289      	uxth	r1, r1
    // set to the default baud rate: 57600
    if (u == USART6)
 80013d0:	42aa      	cmp	r2, r5
    else
      dp->rx_gpio->AFR[0] |= (uint32_t)dp->af << (dp->rx_pin * 4);

    USART_TypeDef *u = dp->uart;
    u->CR1 &= ~USART_CR1_UE; // make sure it's off while we configure it
    u->CR1 |=  USART_CR1_RE; // don't enable the transmitter yet
 80013d2:	f041 0104 	orr.w	r1, r1, #4
 80013d6:	8191      	strh	r1, [r2, #12]
    // set to the default baud rate: 57600
    if (u == USART6)
      u->BRR = (((uint16_t)91) << 4) | 2; 
 80013d8:	bf0c      	ite	eq
 80013da:	f8a5 c008 	strheq.w	ip, [r5, #8]
    else
      u->BRR = (((uint16_t)45) << 4) | 9;
 80013de:	8117      	strhne	r7, [r2, #8]
    if (u == USART6) // running on APB2 = 84 MHz
      u->BRR = (((uint16_t)5) << 4) | 4; // 5.25 mantissa = 5, fraction =  4
    else // running on APB1 = 42 MHz
      u->BRR = (((uint16_t)2) << 4) | 10;// 2.625 mantissa = 2, fraction = 10
    */
    u->CR1 |=  USART_CR1_UE | USART_CR1_RXNEIE;
 80013e0:	8991      	ldrh	r1, [r2, #12]
 80013e2:	b289      	uxth	r1, r1
 80013e4:	f441 5100 	orr.w	r1, r1, #8192	; 0x2000
 80013e8:	3318      	adds	r3, #24
 80013ea:	f041 0120 	orr.w	r1, r1, #32
  RCC->APB1ENR |= RCC_APB1ENR_USART3EN |
                  RCC_APB1ENR_UART4EN  |
                  RCC_APB1ENR_UART5EN;
  RCC->APB2ENR |= RCC_APB2ENR_USART6EN;

  for (int i = 0; i < NUM_DMXL; i++)
 80013ee:	42b3      	cmp	r3, r6
    if (u == USART6) // running on APB2 = 84 MHz
      u->BRR = (((uint16_t)5) << 4) | 4; // 5.25 mantissa = 5, fraction =  4
    else // running on APB1 = 42 MHz
      u->BRR = (((uint16_t)2) << 4) | 10;// 2.625 mantissa = 2, fraction = 10
    */
    u->CR1 |=  USART_CR1_UE | USART_CR1_RXNEIE;
 80013f0:	8191      	strh	r1, [r2, #12]
  RCC->APB1ENR |= RCC_APB1ENR_USART3EN |
                  RCC_APB1ENR_UART4EN  |
                  RCC_APB1ENR_UART5EN;
  RCC->APB2ENR |= RCC_APB2ENR_USART6EN;

  for (int i = 0; i < NUM_DMXL; i++)
 80013f2:	d1b0      	bne.n	8001356 <dmxl_init+0x36>
__STATIC_INLINE void NVIC_SetPriority(IRQn_Type IRQn, uint32_t priority)
{
  if(IRQn < 0) {
    SCB->SHP[((uint32_t)(IRQn) & 0xF)-4] = ((priority << (8 - __NVIC_PRIO_BITS)) & 0xff); } /* set Priority for Cortex-M  System Interrupts */
  else {
    NVIC->IP[(uint32_t)(IRQn)] = ((priority << (8 - __NVIC_PRIO_BITS)) & 0xff);    }        /* set Priority for device specific Interrupts  */
 80013f4:	4b19      	ldr	r3, [pc, #100]	; (800145c <dmxl_init+0x13c>)
  NVIC_EnableIRQ(UART5_IRQn);
  NVIC_EnableIRQ(USART6_IRQn);

  //GPIOD->MODER |= (1 << (8*2)); // | (1 << 9);
  // turn on the 3.3v <-> 5v translator chip now
  GPIOA->MODER |= 1 << (PORTA_DMXL_BUF_EN * 2);
 80013f6:	4a1a      	ldr	r2, [pc, #104]	; (8001460 <dmxl_init+0x140>)
 80013f8:	2120      	movs	r1, #32
    \param [in]      IRQn  External interrupt number. Value cannot be negative.
 */
__STATIC_INLINE void NVIC_EnableIRQ(IRQn_Type IRQn)
{
/*  NVIC->ISER[((uint32_t)(IRQn) >> 5)] = (1 << ((uint32_t)(IRQn) & 0x1F));  enable interrupt */
  NVIC->ISER[(uint32_t)((int32_t)IRQn) >> 5] = (uint32_t)(1 << ((uint32_t)((int32_t)IRQn) & (uint32_t)0x1F)); /* enable interrupt */
 80013fa:	2080      	movs	r0, #128	; 0x80
 80013fc:	f44f 1580 	mov.w	r5, #1048576	; 0x100000
 8001400:	f44f 1400 	mov.w	r4, #2097152	; 0x200000
__STATIC_INLINE void NVIC_SetPriority(IRQn_Type IRQn, uint32_t priority)
{
  if(IRQn < 0) {
    SCB->SHP[((uint32_t)(IRQn) & 0xF)-4] = ((priority << (8 - __NVIC_PRIO_BITS)) & 0xff); } /* set Priority for Cortex-M  System Interrupts */
  else {
    NVIC->IP[(uint32_t)(IRQn)] = ((priority << (8 - __NVIC_PRIO_BITS)) & 0xff);    }        /* set Priority for device specific Interrupts  */
 8001404:	f883 1327 	strb.w	r1, [r3, #807]	; 0x327
 8001408:	f883 1334 	strb.w	r1, [r3, #820]	; 0x334
 800140c:	f883 1335 	strb.w	r1, [r3, #821]	; 0x335
 8001410:	f883 1347 	strb.w	r1, [r3, #839]	; 0x347
    \param [in]      IRQn  External interrupt number. Value cannot be negative.
 */
__STATIC_INLINE void NVIC_EnableIRQ(IRQn_Type IRQn)
{
/*  NVIC->ISER[((uint32_t)(IRQn) >> 5)] = (1 << ((uint32_t)(IRQn) & 0x1F));  enable interrupt */
  NVIC->ISER[(uint32_t)((int32_t)IRQn) >> 5] = (uint32_t)(1 << ((uint32_t)((int32_t)IRQn) & (uint32_t)0x1F)); /* enable interrupt */
 8001414:	6058      	str	r0, [r3, #4]
 8001416:	605d      	str	r5, [r3, #4]
 8001418:	605c      	str	r4, [r3, #4]
 800141a:	6098      	str	r0, [r3, #8]
 800141c:	6813      	ldr	r3, [r2, #0]
 800141e:	432b      	orrs	r3, r5
 8001420:	6013      	str	r3, [r2, #0]
  GPIOA->BSRRL |= 1 << PORTA_DMXL_BUF_EN;
 8001422:	8b13      	ldrh	r3, [r2, #24]
 8001424:	b29b      	uxth	r3, r3
 8001426:	f443 6380 	orr.w	r3, r3, #1024	; 0x400
 800142a:	8313      	strh	r3, [r2, #24]
 800142c:	e8bd 83f8 	ldmia.w	sp!, {r3, r4, r5, r6, r7, r8, r9, pc}
      dp->tx_gpio->AFR[0] |= (uint32_t)dp->af << (dp->tx_pin * 4);

    if (dp->rx_pin >= 8)
      dp->rx_gpio->AFR[1] |= (uint32_t)dp->af << ((dp->rx_pin - 8) * 4);
    else
      dp->rx_gpio->AFR[0] |= (uint32_t)dp->af << (dp->rx_pin * 4);
 8001430:	6a10      	ldr	r0, [r2, #32]
 8001432:	fa08 f101 	lsl.w	r1, r8, r1
 8001436:	4301      	orrs	r1, r0
 8001438:	6211      	str	r1, [r2, #32]
 800143a:	e7c0      	b.n	80013be <dmxl_init+0x9e>
    dp->rx_gpio->MODER |= (uint32_t)2 << (dp->rx_pin * 2); // set as AF

    if (dp->tx_pin >= 8)
      dp->tx_gpio->AFR[1] |= (uint32_t)dp->af << ((dp->tx_pin - 8) * 4);
    else
      dp->tx_gpio->AFR[0] |= (uint32_t)dp->af << (dp->tx_pin * 4);
 800143c:	f8d1 8020 	ldr.w	r8, [r1, #32]
 8001440:	fa09 f000 	lsl.w	r0, r9, r0
 8001444:	ea40 0008 	orr.w	r0, r0, r8
 8001448:	6208      	str	r0, [r1, #32]
 800144a:	e7a8      	b.n	800139e <dmxl_init+0x7e>
 800144c:	08009044 	.word	0x08009044
 8001450:	40011400 	.word	0x40011400
 8001454:	40023800 	.word	0x40023800
 8001458:	2000000c 	.word	0x2000000c
 800145c:	e000e100 	.word	0xe000e100
 8001460:	40020000 	.word	0x40020000

08001464 <dmxl_ping>:
  u->CR1 |=  USART_CR1_RE; // re-enable the transmitter
  // todo: actually spin here until we get a packet back in the rx ring
}

uint8_t dmxl_ping(const uint8_t port_idx, const uint8_t dmxl_id)
{
 8001464:	b500      	push	{lr}
 8001466:	b083      	sub	sp, #12
  uint8_t pkt[3];
  pkt[0] = dmxl_id;
  pkt[1] = 2; // packet length
 8001468:	2202      	movs	r2, #2
  pkt[2] = 1; // instruction: ping
 800146a:	2301      	movs	r3, #1
}

static void dmxl_tx(const uint8_t port_idx, 
             const uint8_t *payload, const uint8_t payload_len)
{
  if (port_idx >= NUM_DMXL)
 800146c:	2803      	cmp	r0, #3
}

uint8_t dmxl_ping(const uint8_t port_idx, const uint8_t dmxl_id)
{
  uint8_t pkt[3];
  pkt[0] = dmxl_id;
 800146e:	f88d 1004 	strb.w	r1, [sp, #4]
  pkt[1] = 2; // packet length
 8001472:	f88d 2005 	strb.w	r2, [sp, #5]
  pkt[2] = 1; // instruction: ping
 8001476:	f88d 3006 	strb.w	r3, [sp, #6]
}

static void dmxl_tx(const uint8_t port_idx, 
             const uint8_t *payload, const uint8_t payload_len)
{
  if (port_idx >= NUM_DMXL)
 800147a:	d803      	bhi.n	8001484 <dmxl_ping+0x20>
 800147c:	a901      	add	r1, sp, #4
 800147e:	2203      	movs	r2, #3
 8001480:	f7ff fe52 	bl	8001128 <dmxl_tx.part.1>
  pkt[0] = dmxl_id;
  pkt[1] = 2; // packet length
  pkt[2] = 1; // instruction: ping
  dmxl_tx(port_idx, pkt, sizeof(pkt));
  return 1; // todo
}
 8001484:	2001      	movs	r0, #1
 8001486:	b003      	add	sp, #12
 8001488:	f85d fb04 	ldr.w	pc, [sp], #4

0800148c <dmxl_process_rings>:
  pkt[4] = data_len;
  dmxl_tx(port_idx, pkt, 5);
}

void dmxl_process_rings()
{
 800148c:	e92d 4ff0 	stmdb	sp!, {r4, r5, r6, r7, r8, r9, sl, fp, lr}
 8001490:	f8df 8184 	ldr.w	r8, [pc, #388]	; 8001618 <dmxl_process_rings+0x18c>
 8001494:	4d5b      	ldr	r5, [pc, #364]	; (8001604 <dmxl_process_rings+0x178>)
 8001496:	f8df b184 	ldr.w	fp, [pc, #388]	; 800161c <dmxl_process_rings+0x190>
  for (int i = 0; i < NUM_DMXL; i++)
  {
    while (g_dmxl_ring_rpos[i] != g_dmxl_ring_wpos[i])
    {
      const uint8_t b = g_dmxl_ring[i][g_dmxl_ring_rpos[i]];
 800149a:	f8df a184 	ldr.w	sl, [pc, #388]	; 8001620 <dmxl_process_rings+0x194>
  pkt[4] = data_len;
  dmxl_tx(port_idx, pkt, 5);
}

void dmxl_process_rings()
{
 800149e:	b083      	sub	sp, #12
  for (int i = 0; i < NUM_DMXL; i++)
  {
    while (g_dmxl_ring_rpos[i] != g_dmxl_ring_wpos[i])
 80014a0:	4646      	mov	r6, r8
  dmxl_tx(port_idx, pkt, 5);
}

void dmxl_process_rings()
{
  for (int i = 0; i < NUM_DMXL; i++)
 80014a2:	2400      	movs	r4, #0
                  (((uint16_t)g_dmxl_rx_pkt[i][3]) << 8) |
                  (((uint16_t)g_dmxl_rx_pkt[i][2])     ) ;
                g_state.dynamixel_loads[i] =
                  (((uint16_t)g_dmxl_rx_pkt[i][5]) << 8) |
                  (((uint16_t)g_dmxl_rx_pkt[i][4])     ) ;
                g_state.dynamixel_voltages[i]     = g_dmxl_rx_pkt[i][6];
 80014a4:	4b58      	ldr	r3, [pc, #352]	; (8001608 <dmxl_process_rings+0x17c>)
            */
            switch (port->comms_state)
            {
              case DMXL_CS_POLL_STATE:
                g_state.dynamixel_angles[i] = 
                  (((uint16_t)g_dmxl_rx_pkt[i][1]) << 8) |
 80014a6:	4f59      	ldr	r7, [pc, #356]	; (800160c <dmxl_process_rings+0x180>)
{
  for (int i = 0; i < NUM_DMXL; i++)
  {
    while (g_dmxl_ring_rpos[i] != g_dmxl_ring_wpos[i])
    {
      const uint8_t b = g_dmxl_ring[i][g_dmxl_ring_rpos[i]];
 80014a8:	ea4f 2904 	mov.w	r9, r4, lsl #8
                  (((uint16_t)g_dmxl_rx_pkt[i][3]) << 8) |
                  (((uint16_t)g_dmxl_rx_pkt[i][2])     ) ;
                g_state.dynamixel_loads[i] =
                  (((uint16_t)g_dmxl_rx_pkt[i][5]) << 8) |
                  (((uint16_t)g_dmxl_rx_pkt[i][4])     ) ;
                g_state.dynamixel_voltages[i]     = g_dmxl_rx_pkt[i][6];
 80014ac:	4423      	add	r3, r4
            */
            switch (port->comms_state)
            {
              case DMXL_CS_POLL_STATE:
                g_state.dynamixel_angles[i] = 
                  (((uint16_t)g_dmxl_rx_pkt[i][1]) << 8) |
 80014ae:	444f      	add	r7, r9
                  (((uint16_t)g_dmxl_rx_pkt[i][3]) << 8) |
                  (((uint16_t)g_dmxl_rx_pkt[i][2])     ) ;
                g_state.dynamixel_loads[i] =
                  (((uint16_t)g_dmxl_rx_pkt[i][5]) << 8) |
                  (((uint16_t)g_dmxl_rx_pkt[i][4])     ) ;
                g_state.dynamixel_voltages[i]     = g_dmxl_rx_pkt[i][6];
 80014b0:	9301      	str	r3, [sp, #4]

void dmxl_process_rings()
{
  for (int i = 0; i < NUM_DMXL; i++)
  {
    while (g_dmxl_ring_rpos[i] != g_dmxl_ring_wpos[i])
 80014b2:	f838 2014 	ldrh.w	r2, [r8, r4, lsl #1]
 80014b6:	f83b 3014 	ldrh.w	r3, [fp, r4, lsl #1]
 80014ba:	b292      	uxth	r2, r2
 80014bc:	b29b      	uxth	r3, r3
 80014be:	429a      	cmp	r2, r3
 80014c0:	f000 808d 	beq.w	80015de <dmxl_process_rings+0x152>
    {
      const uint8_t b = g_dmxl_ring[i][g_dmxl_ring_rpos[i]];
 80014c4:	f836 3014 	ldrh.w	r3, [r6, r4, lsl #1]
 80014c8:	fa19 f383 	uxtah	r3, r9, r3
 80014cc:	f81a 2003 	ldrb.w	r2, [sl, r3]
      //printf("dmxl %d received 0x%02x\r\n", i, b);
      if (++g_dmxl_ring_rpos[i] >= DMXL_RING_LEN)
 80014d0:	f836 3014 	ldrh.w	r3, [r6, r4, lsl #1]
 80014d4:	b29b      	uxth	r3, r3
 80014d6:	3301      	adds	r3, #1
 80014d8:	b29b      	uxth	r3, r3
 80014da:	2bff      	cmp	r3, #255	; 0xff
 80014dc:	f826 3014 	strh.w	r3, [r6, r4, lsl #1]
        g_dmxl_ring_rpos[i] = 0; // wrap around
 80014e0:	bf84      	itt	hi
 80014e2:	2300      	movhi	r3, #0
 80014e4:	f826 3014 	strhhi.w	r3, [r6, r4, lsl #1]
      dmxl_port_t *port = &g_dmxl_ports[i]; // save typing
      switch (port->parser_state)
 80014e8:	7c6b      	ldrb	r3, [r5, #17]
{
  for (int i = 0; i < NUM_DMXL; i++)
  {
    while (g_dmxl_ring_rpos[i] != g_dmxl_ring_wpos[i])
    {
      const uint8_t b = g_dmxl_ring[i][g_dmxl_ring_rpos[i]];
 80014ea:	b2d2      	uxtb	r2, r2
      //printf("dmxl %d received 0x%02x\r\n", i, b);
      if (++g_dmxl_ring_rpos[i] >= DMXL_RING_LEN)
        g_dmxl_ring_rpos[i] = 0; // wrap around
      dmxl_port_t *port = &g_dmxl_ports[i]; // save typing
      switch (port->parser_state)
 80014ec:	2b06      	cmp	r3, #6
 80014ee:	d872      	bhi.n	80015d6 <dmxl_process_rings+0x14a>
 80014f0:	e8df f003 	tbb	[pc, r3]
 80014f4:	5a62666b 	.word	0x5a62666b
 80014f8:	384d      	.short	0x384d
 80014fa:	04          	.byte	0x04
 80014fb:	00          	.byte	0x00
          if (port->rx_pkt_writepos == port->rx_pkt_len - 1)
            port->parser_state = DMXL_PS_CHECKSUM;
          port->rx_pkt_writepos++;
          break;
        case DMXL_PS_CHECKSUM:
          if (((uint8_t)(~port->rx_checksum)) == b)
 80014fc:	7d29      	ldrb	r1, [r5, #20]
 80014fe:	43c9      	mvns	r1, r1
 8001500:	b2c9      	uxtb	r1, r1
 8001502:	4291      	cmp	r1, r2
 8001504:	d174      	bne.n	80015f0 <dmxl_process_rings+0x164>
            /*
            printf("checksum passed. received %d bytes\r\n", port->rx_pkt_len);
            for (int j = 0; j < port->rx_pkt_len; j++)
              printf("  0x%02x\r\n", g_dmxl_rx_pkt[i][j]);
            */
            switch (port->comms_state)
 8001506:	7c2b      	ldrb	r3, [r5, #16]
 8001508:	2b02      	cmp	r3, #2
 800150a:	d127      	bne.n	800155c <dmxl_process_rings+0xd0>
            {
              case DMXL_CS_POLL_STATE:
                g_state.dynamixel_angles[i] = 
 800150c:	483e      	ldr	r0, [pc, #248]	; (8001608 <dmxl_process_rings+0x17c>)
                  (((uint16_t)g_dmxl_rx_pkt[i][1]) << 8) |
 800150e:	7879      	ldrb	r1, [r7, #1]
                  (((uint16_t)g_dmxl_rx_pkt[i][0])     ) ;
 8001510:	783a      	ldrb	r2, [r7, #0]
              printf("  0x%02x\r\n", g_dmxl_rx_pkt[i][j]);
            */
            switch (port->comms_state)
            {
              case DMXL_CS_POLL_STATE:
                g_state.dynamixel_angles[i] = 
 8001512:	f104 0354 	add.w	r3, r4, #84	; 0x54
 8001516:	eb00 0343 	add.w	r3, r0, r3, lsl #1
 800151a:	ea42 2201 	orr.w	r2, r2, r1, lsl #8
 800151e:	8859      	ldrh	r1, [r3, #2]
 8001520:	805a      	strh	r2, [r3, #2]
                  (((uint16_t)g_dmxl_rx_pkt[i][1]) << 8) |
                  (((uint16_t)g_dmxl_rx_pkt[i][0])     ) ;
                //printf("dmxl %d angle = %d\r\n", (int)i, (int)g_state.dynamixel_angles[i]);
                g_state.dynamixel_speeds[i] =
                  (((uint16_t)g_dmxl_rx_pkt[i][3]) << 8) |
 8001522:	78f9      	ldrb	r1, [r7, #3]
                  (((uint16_t)g_dmxl_rx_pkt[i][2])     ) ;
 8001524:	78ba      	ldrb	r2, [r7, #2]
              case DMXL_CS_POLL_STATE:
                g_state.dynamixel_angles[i] = 
                  (((uint16_t)g_dmxl_rx_pkt[i][1]) << 8) |
                  (((uint16_t)g_dmxl_rx_pkt[i][0])     ) ;
                //printf("dmxl %d angle = %d\r\n", (int)i, (int)g_state.dynamixel_angles[i]);
                g_state.dynamixel_speeds[i] =
 8001526:	f104 0358 	add.w	r3, r4, #88	; 0x58
 800152a:	eb00 0343 	add.w	r3, r0, r3, lsl #1
 800152e:	ea42 2201 	orr.w	r2, r2, r1, lsl #8
 8001532:	8859      	ldrh	r1, [r3, #2]
 8001534:	805a      	strh	r2, [r3, #2]
                  (((uint16_t)g_dmxl_rx_pkt[i][3]) << 8) |
                  (((uint16_t)g_dmxl_rx_pkt[i][2])     ) ;
                g_state.dynamixel_loads[i] =
                  (((uint16_t)g_dmxl_rx_pkt[i][5]) << 8) |
 8001536:	7979      	ldrb	r1, [r7, #5]
                  (((uint16_t)g_dmxl_rx_pkt[i][4])     ) ;
 8001538:	793a      	ldrb	r2, [r7, #4]
                  (((uint16_t)g_dmxl_rx_pkt[i][0])     ) ;
                //printf("dmxl %d angle = %d\r\n", (int)i, (int)g_state.dynamixel_angles[i]);
                g_state.dynamixel_speeds[i] =
                  (((uint16_t)g_dmxl_rx_pkt[i][3]) << 8) |
                  (((uint16_t)g_dmxl_rx_pkt[i][2])     ) ;
                g_state.dynamixel_loads[i] =
 800153a:	f104 035c 	add.w	r3, r4, #92	; 0x5c
 800153e:	eb00 0343 	add.w	r3, r0, r3, lsl #1
 8001542:	ea42 2201 	orr.w	r2, r2, r1, lsl #8
 8001546:	8859      	ldrh	r1, [r3, #2]
 8001548:	805a      	strh	r2, [r3, #2]
                  (((uint16_t)g_dmxl_rx_pkt[i][5]) << 8) |
                  (((uint16_t)g_dmxl_rx_pkt[i][4])     ) ;
                g_state.dynamixel_voltages[i]     = g_dmxl_rx_pkt[i][6];
 800154a:	79bb      	ldrb	r3, [r7, #6]
 800154c:	9901      	ldr	r1, [sp, #4]
 800154e:	b2db      	uxtb	r3, r3
 8001550:	f881 30c2 	strb.w	r3, [r1, #194]	; 0xc2
                g_state.dynamixel_temperatures[i] = g_dmxl_rx_pkt[i][7];
 8001554:	79fb      	ldrb	r3, [r7, #7]
 8001556:	b2db      	uxtb	r3, r3
 8001558:	f881 30c6 	strb.w	r3, [r1, #198]	; 0xc6
            }
          }
          else
            printf("checksum failed: local 0x%02x != received 0x%02x\r\n",
                   (uint8_t)~port->rx_checksum, b);
          port->parser_state = DMXL_PS_PREAMBLE_0;
 800155c:	2300      	movs	r3, #0
 800155e:	746b      	strb	r3, [r5, #17]
          port->comms_state = DMXL_CS_IDLE;
 8001560:	742b      	strb	r3, [r5, #16]
          break;
 8001562:	e7a6      	b.n	80014b2 <dmxl_process_rings+0x26>
            port->parser_state = DMXL_PS_PARAMETER;
          else
            port->parser_state = DMXL_PS_CHECKSUM;
          break;
        case DMXL_PS_PARAMETER:
          port->rx_checksum += b;
 8001564:	7d28      	ldrb	r0, [r5, #20]
          g_dmxl_rx_pkt[i][port->rx_pkt_writepos] = b;
 8001566:	7ceb      	ldrb	r3, [r5, #19]
          if (port->rx_pkt_writepos == port->rx_pkt_len - 1)
 8001568:	7ca9      	ldrb	r1, [r5, #18]
            port->parser_state = DMXL_PS_PARAMETER;
          else
            port->parser_state = DMXL_PS_CHECKSUM;
          break;
        case DMXL_PS_PARAMETER:
          port->rx_checksum += b;
 800156a:	4410      	add	r0, r2
          g_dmxl_rx_pkt[i][port->rx_pkt_writepos] = b;
 800156c:	eb09 0c03 	add.w	ip, r9, r3
            port->parser_state = DMXL_PS_PARAMETER;
          else
            port->parser_state = DMXL_PS_CHECKSUM;
          break;
        case DMXL_PS_PARAMETER:
          port->rx_checksum += b;
 8001570:	9000      	str	r0, [sp, #0]
          g_dmxl_rx_pkt[i][port->rx_pkt_writepos] = b;
 8001572:	4826      	ldr	r0, [pc, #152]	; (800160c <dmxl_process_rings+0x180>)
          if (port->rx_pkt_writepos == port->rx_pkt_len - 1)
 8001574:	3901      	subs	r1, #1
 8001576:	428b      	cmp	r3, r1
          else
            port->parser_state = DMXL_PS_CHECKSUM;
          break;
        case DMXL_PS_PARAMETER:
          port->rx_checksum += b;
          g_dmxl_rx_pkt[i][port->rx_pkt_writepos] = b;
 8001578:	f800 200c 	strb.w	r2, [r0, ip]
            port->parser_state = DMXL_PS_PARAMETER;
          else
            port->parser_state = DMXL_PS_CHECKSUM;
          break;
        case DMXL_PS_PARAMETER:
          port->rx_checksum += b;
 800157c:	9a00      	ldr	r2, [sp, #0]
 800157e:	752a      	strb	r2, [r5, #20]
          g_dmxl_rx_pkt[i][port->rx_pkt_writepos] = b;
          if (port->rx_pkt_writepos == port->rx_pkt_len - 1)
            port->parser_state = DMXL_PS_CHECKSUM;
          port->rx_pkt_writepos++;
 8001580:	f103 0301 	add.w	r3, r3, #1
          break;
        case DMXL_PS_PARAMETER:
          port->rx_checksum += b;
          g_dmxl_rx_pkt[i][port->rx_pkt_writepos] = b;
          if (port->rx_pkt_writepos == port->rx_pkt_len - 1)
            port->parser_state = DMXL_PS_CHECKSUM;
 8001584:	bf04      	itt	eq
 8001586:	2206      	moveq	r2, #6
 8001588:	746a      	strbeq	r2, [r5, #17]
          port->rx_pkt_writepos++;
 800158a:	74eb      	strb	r3, [r5, #19]
          break;
 800158c:	e791      	b.n	80014b2 <dmxl_process_rings+0x26>
          port->rx_checksum += b;
          port->parser_state = DMXL_PS_ERROR;
          break;
        case DMXL_PS_ERROR:
          g_state.dynamixel_error_status[i] = b; // save for global state
          port->rx_checksum += b;
 800158e:	7d29      	ldrb	r1, [r5, #20]
          port->rx_pkt_len = b - 2;
          port->rx_checksum += b;
          port->parser_state = DMXL_PS_ERROR;
          break;
        case DMXL_PS_ERROR:
          g_state.dynamixel_error_status[i] = b; // save for global state
 8001590:	9801      	ldr	r0, [sp, #4]
          port->rx_checksum += b;
          port->rx_pkt_writepos = 0;
          if (port->rx_pkt_len)
 8001592:	7cab      	ldrb	r3, [r5, #18]
          port->rx_pkt_len = b - 2;
          port->rx_checksum += b;
          port->parser_state = DMXL_PS_ERROR;
          break;
        case DMXL_PS_ERROR:
          g_state.dynamixel_error_status[i] = b; // save for global state
 8001594:	f880 20a6 	strb.w	r2, [r0, #166]	; 0xa6
          port->rx_checksum += b;
 8001598:	440a      	add	r2, r1
          port->rx_pkt_writepos = 0;
 800159a:	2100      	movs	r1, #0
          port->rx_checksum += b;
          port->parser_state = DMXL_PS_ERROR;
          break;
        case DMXL_PS_ERROR:
          g_state.dynamixel_error_status[i] = b; // save for global state
          port->rx_checksum += b;
 800159c:	752a      	strb	r2, [r5, #20]
          port->rx_pkt_writepos = 0;
 800159e:	74e9      	strb	r1, [r5, #19]
          if (port->rx_pkt_len)
 80015a0:	b353      	cbz	r3, 80015f8 <dmxl_process_rings+0x16c>
            port->parser_state = DMXL_PS_PARAMETER;
 80015a2:	2305      	movs	r3, #5
 80015a4:	746b      	strb	r3, [r5, #17]
 80015a6:	e784      	b.n	80014b2 <dmxl_process_rings+0x26>
          port->rx_checksum = b;
          port->parser_state = DMXL_PS_LENGTH; // ignore ID (all the same)
          break;
        case DMXL_PS_LENGTH:
          port->rx_pkt_len = b - 2;
          port->rx_checksum += b;
 80015a8:	7d29      	ldrb	r1, [r5, #20]
          port->parser_state = DMXL_PS_ERROR;
 80015aa:	2304      	movs	r3, #4
          port->rx_checksum = b;
          port->parser_state = DMXL_PS_LENGTH; // ignore ID (all the same)
          break;
        case DMXL_PS_LENGTH:
          port->rx_pkt_len = b - 2;
          port->rx_checksum += b;
 80015ac:	4411      	add	r1, r2
        case DMXL_PS_ID:
          port->rx_checksum = b;
          port->parser_state = DMXL_PS_LENGTH; // ignore ID (all the same)
          break;
        case DMXL_PS_LENGTH:
          port->rx_pkt_len = b - 2;
 80015ae:	3a02      	subs	r2, #2
          port->rx_checksum += b;
 80015b0:	7529      	strb	r1, [r5, #20]
        case DMXL_PS_ID:
          port->rx_checksum = b;
          port->parser_state = DMXL_PS_LENGTH; // ignore ID (all the same)
          break;
        case DMXL_PS_LENGTH:
          port->rx_pkt_len = b - 2;
 80015b2:	74aa      	strb	r2, [r5, #18]
          port->rx_checksum += b;
          port->parser_state = DMXL_PS_ERROR;
 80015b4:	746b      	strb	r3, [r5, #17]
          break;
 80015b6:	e77c      	b.n	80014b2 <dmxl_process_rings+0x26>
          else
            port->parser_state = DMXL_PS_PREAMBLE_0;
          break;
        case DMXL_PS_ID:
          port->rx_checksum = b;
          port->parser_state = DMXL_PS_LENGTH; // ignore ID (all the same)
 80015b8:	2303      	movs	r3, #3
            port->parser_state = DMXL_PS_ID;
          else
            port->parser_state = DMXL_PS_PREAMBLE_0;
          break;
        case DMXL_PS_ID:
          port->rx_checksum = b;
 80015ba:	752a      	strb	r2, [r5, #20]
          port->parser_state = DMXL_PS_LENGTH; // ignore ID (all the same)
 80015bc:	746b      	strb	r3, [r5, #17]
          break;
 80015be:	e778      	b.n	80014b2 <dmxl_process_rings+0x26>
        case DMXL_PS_PREAMBLE_0:
          if (b == 0xff)
            port->parser_state = DMXL_PS_PREAMBLE_1;
          break;
        case DMXL_PS_PREAMBLE_1:
          if (b == 0xff)
 80015c0:	2aff      	cmp	r2, #255	; 0xff
 80015c2:	d01c      	beq.n	80015fe <dmxl_process_rings+0x172>
          port->parser_state = DMXL_PS_PREAMBLE_0;
          port->comms_state = DMXL_CS_IDLE;
          break;
        default:
          printf("woah there partner. unexpected dmxl rx state!\r\n");
          port->parser_state = DMXL_PS_PREAMBLE_0;
 80015c4:	2300      	movs	r3, #0
 80015c6:	746b      	strb	r3, [r5, #17]
          break;
 80015c8:	e773      	b.n	80014b2 <dmxl_process_rings+0x26>
        g_dmxl_ring_rpos[i] = 0; // wrap around
      dmxl_port_t *port = &g_dmxl_ports[i]; // save typing
      switch (port->parser_state)
      {
        case DMXL_PS_PREAMBLE_0:
          if (b == 0xff)
 80015ca:	2aff      	cmp	r2, #255	; 0xff
 80015cc:	f47f af71 	bne.w	80014b2 <dmxl_process_rings+0x26>
            port->parser_state = DMXL_PS_PREAMBLE_1;
 80015d0:	2301      	movs	r3, #1
 80015d2:	746b      	strb	r3, [r5, #17]
 80015d4:	e76d      	b.n	80014b2 <dmxl_process_rings+0x26>
                   (uint8_t)~port->rx_checksum, b);
          port->parser_state = DMXL_PS_PREAMBLE_0;
          port->comms_state = DMXL_CS_IDLE;
          break;
        default:
          printf("woah there partner. unexpected dmxl rx state!\r\n");
 80015d6:	480e      	ldr	r0, [pc, #56]	; (8001610 <dmxl_process_rings+0x184>)
 80015d8:	f000 ff34 	bl	8002444 <puts>
 80015dc:	e7f2      	b.n	80015c4 <dmxl_process_rings+0x138>
  dmxl_tx(port_idx, pkt, 5);
}

void dmxl_process_rings()
{
  for (int i = 0; i < NUM_DMXL; i++)
 80015de:	3401      	adds	r4, #1
 80015e0:	2c04      	cmp	r4, #4
 80015e2:	f105 0518 	add.w	r5, r5, #24
 80015e6:	f47f af5d 	bne.w	80014a4 <dmxl_process_rings+0x18>
          port->parser_state = DMXL_PS_PREAMBLE_0;
          break;
      }
    }
  }
}
 80015ea:	b003      	add	sp, #12
 80015ec:	e8bd 8ff0 	ldmia.w	sp!, {r4, r5, r6, r7, r8, r9, sl, fp, pc}
              default:
                break;
            }
          }
          else
            printf("checksum failed: local 0x%02x != received 0x%02x\r\n",
 80015f0:	4808      	ldr	r0, [pc, #32]	; (8001614 <dmxl_process_rings+0x188>)
 80015f2:	f000 fee5 	bl	80023c0 <printf>
 80015f6:	e7b1      	b.n	800155c <dmxl_process_rings+0xd0>
          port->rx_checksum += b;
          port->rx_pkt_writepos = 0;
          if (port->rx_pkt_len)
            port->parser_state = DMXL_PS_PARAMETER;
          else
            port->parser_state = DMXL_PS_CHECKSUM;
 80015f8:	2306      	movs	r3, #6
 80015fa:	746b      	strb	r3, [r5, #17]
 80015fc:	e759      	b.n	80014b2 <dmxl_process_rings+0x26>
          if (b == 0xff)
            port->parser_state = DMXL_PS_PREAMBLE_1;
          break;
        case DMXL_PS_PREAMBLE_1:
          if (b == 0xff)
            port->parser_state = DMXL_PS_ID;
 80015fe:	2302      	movs	r3, #2
 8001600:	746b      	strb	r3, [r5, #17]
 8001602:	e756      	b.n	80014b2 <dmxl_process_rings+0x26>
 8001604:	2000000c 	.word	0x2000000c
 8001608:	2000fca0 	.word	0x2000fca0
 800160c:	2000f388 	.word	0x2000f388
 8001610:	08009088 	.word	0x08009088
 8001614:	08009054 	.word	0x08009054
 8001618:	2000fb88 	.word	0x2000fb88
 800161c:	2000f380 	.word	0x2000f380
 8001620:	2000f788 	.word	0x2000f788

08001624 <dmxl_set_led>:
  }
}

void dmxl_set_led(const uint8_t port_idx, const uint8_t dmxl_id,
                  const uint8_t enable)
{
 8001624:	b500      	push	{lr}
 8001626:	b085      	sub	sp, #20
  uint8_t d = enable ? 1 : 0;
 8001628:	3200      	adds	r2, #0
 800162a:	ab04      	add	r3, sp, #16
 800162c:	bf18      	it	ne
 800162e:	2201      	movne	r2, #1
 8001630:	f803 2d01 	strb.w	r2, [r3, #-1]!
  dmxl_write_data(port_idx, dmxl_id, 1, 25, &d); // 25 = LED address
 8001634:	2201      	movs	r2, #1
 8001636:	9300      	str	r3, [sp, #0]
 8001638:	2319      	movs	r3, #25
 800163a:	f7ff fdb9 	bl	80011b0 <dmxl_write_data>
}
 800163e:	b005      	add	sp, #20
 8001640:	f85d fb04 	ldr.w	pc, [sp], #4

08001644 <dmxl_set_torque_enable>:


void dmxl_set_torque_enable(const uint8_t port_idx, const uint8_t dmxl_id,
                            const uint8_t enable)
{
 8001644:	b500      	push	{lr}
 8001646:	b085      	sub	sp, #20
  uint8_t d = enable ? 1 : 0;
 8001648:	3200      	adds	r2, #0
 800164a:	ab04      	add	r3, sp, #16
 800164c:	bf18      	it	ne
 800164e:	2201      	movne	r2, #1
 8001650:	f803 2d01 	strb.w	r2, [r3, #-1]!
  dmxl_write_data(port_idx, dmxl_id, 1, 24, &d);
 8001654:	2201      	movs	r2, #1
 8001656:	9300      	str	r3, [sp, #0]
 8001658:	2318      	movs	r3, #24
 800165a:	f7ff fda9 	bl	80011b0 <dmxl_write_data>
}
 800165e:	b005      	add	sp, #20
 8001660:	f85d fb04 	ldr.w	pc, [sp], #4

08001664 <dmxl_set_angle_limits>:

void dmxl_set_angle_limits(const uint8_t port_idx, const uint8_t dmxl_id,
                           const uint16_t cw_limit, const uint16_t ccw_limit)
{
 8001664:	b5f0      	push	{r4, r5, r6, r7, lr}
 8001666:	b085      	sub	sp, #20
 8001668:	461c      	mov	r4, r3
  uint8_t d[4];
  d[0] = cw_limit & 0xff;
  d[1] = (cw_limit >> 8) & 0xff;
  d[2] = ccw_limit & 0xff;
  d[3] = (ccw_limit >> 8) & 0xff;
  dmxl_write_data(port_idx, dmxl_id, 4, 6, d);
 800166a:	ab03      	add	r3, sp, #12
  dmxl_write_data(port_idx, dmxl_id, 1, 24, &d);
}

void dmxl_set_angle_limits(const uint8_t port_idx, const uint8_t dmxl_id,
                           const uint16_t cw_limit, const uint16_t ccw_limit)
{
 800166c:	4615      	mov	r5, r2
  uint8_t d[4];
  d[0] = cw_limit & 0xff;
  d[1] = (cw_limit >> 8) & 0xff;
 800166e:	0a17      	lsrs	r7, r2, #8
  d[2] = ccw_limit & 0xff;
  d[3] = (ccw_limit >> 8) & 0xff;
  dmxl_write_data(port_idx, dmxl_id, 4, 6, d);
 8001670:	9300      	str	r3, [sp, #0]
{
  uint8_t d[4];
  d[0] = cw_limit & 0xff;
  d[1] = (cw_limit >> 8) & 0xff;
  d[2] = ccw_limit & 0xff;
  d[3] = (ccw_limit >> 8) & 0xff;
 8001672:	0a26      	lsrs	r6, r4, #8
  dmxl_write_data(port_idx, dmxl_id, 4, 6, d);
 8001674:	2204      	movs	r2, #4
 8001676:	2306      	movs	r3, #6

void dmxl_set_angle_limits(const uint8_t port_idx, const uint8_t dmxl_id,
                           const uint16_t cw_limit, const uint16_t ccw_limit)
{
  uint8_t d[4];
  d[0] = cw_limit & 0xff;
 8001678:	f88d 500c 	strb.w	r5, [sp, #12]
  d[1] = (cw_limit >> 8) & 0xff;
 800167c:	f88d 700d 	strb.w	r7, [sp, #13]
  d[2] = ccw_limit & 0xff;
 8001680:	f88d 400e 	strb.w	r4, [sp, #14]
  d[3] = (ccw_limit >> 8) & 0xff;
 8001684:	f88d 600f 	strb.w	r6, [sp, #15]
  dmxl_write_data(port_idx, dmxl_id, 4, 6, d);
 8001688:	f7ff fd92 	bl	80011b0 <dmxl_write_data>
}
 800168c:	b005      	add	sp, #20
 800168e:	bdf0      	pop	{r4, r5, r6, r7, pc}

08001690 <dmxl_set_speed_dir>:

void dmxl_set_speed_dir(const uint8_t port_idx, const uint8_t dmxl_id,
                        const uint16_t speed, const uint8_t dir)
{
 8001690:	b530      	push	{r4, r5, lr}
  uint8_t d[2];
  d[0] = speed & 0xff;
  d[1] = ((speed >> 8) & 0x03) | (dir ? 0x04 : 0);
 8001692:	2b00      	cmp	r3, #0
  dmxl_write_data(port_idx, dmxl_id, 4, 6, d);
}

void dmxl_set_speed_dir(const uint8_t port_idx, const uint8_t dmxl_id,
                        const uint16_t speed, const uint8_t dir)
{
 8001694:	b085      	sub	sp, #20
 8001696:	4614      	mov	r4, r2
  uint8_t d[2];
  d[0] = speed & 0xff;
  d[1] = ((speed >> 8) & 0x03) | (dir ? 0x04 : 0);
 8001698:	bf0c      	ite	eq
 800169a:	2500      	moveq	r5, #0
 800169c:	2504      	movne	r5, #4
  dmxl_write_data(port_idx, dmxl_id, 2, 32, d);
 800169e:	ab03      	add	r3, sp, #12
void dmxl_set_speed_dir(const uint8_t port_idx, const uint8_t dmxl_id,
                        const uint16_t speed, const uint8_t dir)
{
  uint8_t d[2];
  d[0] = speed & 0xff;
  d[1] = ((speed >> 8) & 0x03) | (dir ? 0x04 : 0);
 80016a0:	f3c2 2201 	ubfx	r2, r2, #8, #2
 80016a4:	4315      	orrs	r5, r2
  dmxl_write_data(port_idx, dmxl_id, 2, 32, d);
 80016a6:	9300      	str	r3, [sp, #0]
 80016a8:	2202      	movs	r2, #2
 80016aa:	2320      	movs	r3, #32

void dmxl_set_speed_dir(const uint8_t port_idx, const uint8_t dmxl_id,
                        const uint16_t speed, const uint8_t dir)
{
  uint8_t d[2];
  d[0] = speed & 0xff;
 80016ac:	f88d 400c 	strb.w	r4, [sp, #12]
  d[1] = ((speed >> 8) & 0x03) | (dir ? 0x04 : 0);
 80016b0:	f88d 500d 	strb.w	r5, [sp, #13]
  dmxl_write_data(port_idx, dmxl_id, 2, 32, d);
 80016b4:	f7ff fd7c 	bl	80011b0 <dmxl_write_data>
}
 80016b8:	b005      	add	sp, #20
 80016ba:	bd30      	pop	{r4, r5, pc}

080016bc <dmxl_set_control_mode>:

void dmxl_set_control_mode(const uint8_t port_idx, 
                           const dmxl_control_mode_t control_mode)
{
 80016bc:	b570      	push	{r4, r5, r6, lr}
  //printf("dmxl_set_control_mode %d %d\r\n", port_idx, (int)control_mode);
  if (port_idx >= NUM_DMXL)
 80016be:	2803      	cmp	r0, #3
  dmxl_write_data(port_idx, dmxl_id, 2, 32, d);
}

void dmxl_set_control_mode(const uint8_t port_idx, 
                           const dmxl_control_mode_t control_mode)
{
 80016c0:	b086      	sub	sp, #24
 80016c2:	4605      	mov	r5, r0
 80016c4:	460c      	mov	r4, r1
  //printf("dmxl_set_control_mode %d %d\r\n", port_idx, (int)control_mode);
  if (port_idx >= NUM_DMXL)
 80016c6:	d804      	bhi.n	80016d2 <dmxl_set_control_mode+0x16>
    return;
  if (control_mode == DMXL_CM_IDLE)
 80016c8:	b129      	cbz	r1, 80016d6 <dmxl_set_control_mode+0x1a>
  {
    dmxl_set_led(port_idx, DMXL_DEFAULT_ID, 0);
    for (volatile uint32_t i = 0; i < 200000; i++) { }
    dmxl_set_torque_enable(port_idx, DMXL_DEFAULT_ID, 0);
  }
  else if (control_mode == DMXL_CM_VELOCITY)
 80016ca:	2901      	cmp	r1, #1
 80016cc:	d043      	beq.n	8001756 <dmxl_set_control_mode+0x9a>
  {
    dmxl_set_led(port_idx, DMXL_DEFAULT_ID, 1);
    for (volatile uint32_t i = 0; i < 200000; i++) { }
    dmxl_set_torque_enable(port_idx, DMXL_DEFAULT_ID, 1);
  }
  else if (control_mode == DMXL_CM_POSITION)
 80016ce:	2902      	cmp	r1, #2
 80016d0:	d021      	beq.n	8001716 <dmxl_set_control_mode+0x5a>
  {
    dmxl_set_led(port_idx, DMXL_DEFAULT_ID, 1);
    for (volatile uint32_t i = 0; i < 200000; i++) { }
    dmxl_set_torque_enable(port_idx, DMXL_DEFAULT_ID, 1);
  }
}
 80016d2:	b006      	add	sp, #24
 80016d4:	bd70      	pop	{r4, r5, r6, pc}
}

void dmxl_set_led(const uint8_t port_idx, const uint8_t dmxl_id,
                  const uint8_t enable)
{
  uint8_t d = enable ? 1 : 0;
 80016d6:	ae06      	add	r6, sp, #24
  dmxl_write_data(port_idx, dmxl_id, 1, 25, &d); // 25 = LED address
 80016d8:	2101      	movs	r1, #1
}

void dmxl_set_led(const uint8_t port_idx, const uint8_t dmxl_id,
                  const uint8_t enable)
{
  uint8_t d = enable ? 1 : 0;
 80016da:	f806 4d04 	strb.w	r4, [r6, #-4]!
  dmxl_write_data(port_idx, dmxl_id, 1, 25, &d); // 25 = LED address
 80016de:	460a      	mov	r2, r1
 80016e0:	2319      	movs	r3, #25
 80016e2:	9600      	str	r6, [sp, #0]
 80016e4:	f7ff fd64 	bl	80011b0 <dmxl_write_data>
  if (port_idx >= NUM_DMXL)
    return;
  if (control_mode == DMXL_CM_IDLE)
  {
    dmxl_set_led(port_idx, DMXL_DEFAULT_ID, 0);
    for (volatile uint32_t i = 0; i < 200000; i++) { }
 80016e8:	9403      	str	r4, [sp, #12]
 80016ea:	9b03      	ldr	r3, [sp, #12]
 80016ec:	4a29      	ldr	r2, [pc, #164]	; (8001794 <dmxl_set_control_mode+0xd8>)
 80016ee:	4293      	cmp	r3, r2
 80016f0:	d805      	bhi.n	80016fe <dmxl_set_control_mode+0x42>
 80016f2:	9b03      	ldr	r3, [sp, #12]
 80016f4:	3301      	adds	r3, #1
 80016f6:	9303      	str	r3, [sp, #12]
 80016f8:	9b03      	ldr	r3, [sp, #12]
 80016fa:	4293      	cmp	r3, r2
 80016fc:	d9f9      	bls.n	80016f2 <dmxl_set_control_mode+0x36>

void dmxl_set_torque_enable(const uint8_t port_idx, const uint8_t dmxl_id,
                            const uint8_t enable)
{
  uint8_t d = enable ? 1 : 0;
  dmxl_write_data(port_idx, dmxl_id, 1, 24, &d);
 80016fe:	2101      	movs	r1, #1
 8001700:	9600      	str	r6, [sp, #0]
 8001702:	4628      	mov	r0, r5
 8001704:	460a      	mov	r2, r1


void dmxl_set_torque_enable(const uint8_t port_idx, const uint8_t dmxl_id,
                            const uint8_t enable)
{
  uint8_t d = enable ? 1 : 0;
 8001706:	2400      	movs	r4, #0
  dmxl_write_data(port_idx, dmxl_id, 1, 24, &d);
 8001708:	2318      	movs	r3, #24


void dmxl_set_torque_enable(const uint8_t port_idx, const uint8_t dmxl_id,
                            const uint8_t enable)
{
  uint8_t d = enable ? 1 : 0;
 800170a:	f88d 4014 	strb.w	r4, [sp, #20]
  dmxl_write_data(port_idx, dmxl_id, 1, 24, &d);
 800170e:	f7ff fd4f 	bl	80011b0 <dmxl_write_data>
  {
    dmxl_set_led(port_idx, DMXL_DEFAULT_ID, 1);
    for (volatile uint32_t i = 0; i < 200000; i++) { }
    dmxl_set_torque_enable(port_idx, DMXL_DEFAULT_ID, 1);
  }
}
 8001712:	b006      	add	sp, #24
 8001714:	bd70      	pop	{r4, r5, r6, pc}
}

void dmxl_set_led(const uint8_t port_idx, const uint8_t dmxl_id,
                  const uint8_t enable)
{
  uint8_t d = enable ? 1 : 0;
 8001716:	ab06      	add	r3, sp, #24
 8001718:	2101      	movs	r1, #1
 800171a:	f803 1d04 	strb.w	r1, [r3, #-4]!
  dmxl_write_data(port_idx, dmxl_id, 1, 25, &d); // 25 = LED address
 800171e:	460a      	mov	r2, r1
 8001720:	9300      	str	r3, [sp, #0]
 8001722:	2319      	movs	r3, #25
 8001724:	f7ff fd44 	bl	80011b0 <dmxl_write_data>
    dmxl_set_torque_enable(port_idx, DMXL_DEFAULT_ID, 1);
  }
  else if (control_mode == DMXL_CM_POSITION)
  {
    dmxl_set_led(port_idx, DMXL_DEFAULT_ID, 1);
    for (volatile uint32_t i = 0; i < 200000; i++) { }
 8001728:	2300      	movs	r3, #0
 800172a:	9305      	str	r3, [sp, #20]
 800172c:	9b05      	ldr	r3, [sp, #20]
 800172e:	4a19      	ldr	r2, [pc, #100]	; (8001794 <dmxl_set_control_mode+0xd8>)
 8001730:	4293      	cmp	r3, r2
 8001732:	d805      	bhi.n	8001740 <dmxl_set_control_mode+0x84>
 8001734:	9b05      	ldr	r3, [sp, #20]
 8001736:	3301      	adds	r3, #1
 8001738:	9305      	str	r3, [sp, #20]
 800173a:	9b05      	ldr	r3, [sp, #20]
 800173c:	4293      	cmp	r3, r2
 800173e:	d9f9      	bls.n	8001734 <dmxl_set_control_mode+0x78>


void dmxl_set_torque_enable(const uint8_t port_idx, const uint8_t dmxl_id,
                            const uint8_t enable)
{
  uint8_t d = enable ? 1 : 0;
 8001740:	ab06      	add	r3, sp, #24
 8001742:	2101      	movs	r1, #1
 8001744:	f803 1d08 	strb.w	r1, [r3, #-8]!
  dmxl_write_data(port_idx, dmxl_id, 1, 24, &d);
 8001748:	4628      	mov	r0, r5
 800174a:	9300      	str	r3, [sp, #0]
 800174c:	460a      	mov	r2, r1
 800174e:	2318      	movs	r3, #24
 8001750:	f7ff fd2e 	bl	80011b0 <dmxl_write_data>
 8001754:	e7bd      	b.n	80016d2 <dmxl_set_control_mode+0x16>
}

void dmxl_set_led(const uint8_t port_idx, const uint8_t dmxl_id,
                  const uint8_t enable)
{
  uint8_t d = enable ? 1 : 0;
 8001756:	ae06      	add	r6, sp, #24
  dmxl_write_data(port_idx, dmxl_id, 1, 25, &d); // 25 = LED address
 8001758:	460a      	mov	r2, r1
}

void dmxl_set_led(const uint8_t port_idx, const uint8_t dmxl_id,
                  const uint8_t enable)
{
  uint8_t d = enable ? 1 : 0;
 800175a:	f806 1d04 	strb.w	r1, [r6, #-4]!
  dmxl_write_data(port_idx, dmxl_id, 1, 25, &d); // 25 = LED address
 800175e:	2319      	movs	r3, #25
 8001760:	9600      	str	r6, [sp, #0]
 8001762:	f7ff fd25 	bl	80011b0 <dmxl_write_data>
    dmxl_set_torque_enable(port_idx, DMXL_DEFAULT_ID, 0);
  }
  else if (control_mode == DMXL_CM_VELOCITY)
  {
    dmxl_set_led(port_idx, DMXL_DEFAULT_ID, 1);
    for (volatile uint32_t i = 0; i < 200000; i++) { }
 8001766:	2300      	movs	r3, #0
 8001768:	9304      	str	r3, [sp, #16]
 800176a:	9b04      	ldr	r3, [sp, #16]
 800176c:	4a09      	ldr	r2, [pc, #36]	; (8001794 <dmxl_set_control_mode+0xd8>)
 800176e:	4293      	cmp	r3, r2
 8001770:	d805      	bhi.n	800177e <dmxl_set_control_mode+0xc2>
 8001772:	9b04      	ldr	r3, [sp, #16]
 8001774:	3301      	adds	r3, #1
 8001776:	9304      	str	r3, [sp, #16]
 8001778:	9b04      	ldr	r3, [sp, #16]
 800177a:	4293      	cmp	r3, r2
 800177c:	d9f9      	bls.n	8001772 <dmxl_set_control_mode+0xb6>


void dmxl_set_torque_enable(const uint8_t port_idx, const uint8_t dmxl_id,
                            const uint8_t enable)
{
  uint8_t d = enable ? 1 : 0;
 800177e:	2401      	movs	r4, #1
  dmxl_write_data(port_idx, dmxl_id, 1, 24, &d);
 8001780:	4621      	mov	r1, r4
 8001782:	9600      	str	r6, [sp, #0]
 8001784:	4628      	mov	r0, r5
 8001786:	4622      	mov	r2, r4
 8001788:	2318      	movs	r3, #24


void dmxl_set_torque_enable(const uint8_t port_idx, const uint8_t dmxl_id,
                            const uint8_t enable)
{
  uint8_t d = enable ? 1 : 0;
 800178a:	f88d 4014 	strb.w	r4, [sp, #20]
  dmxl_write_data(port_idx, dmxl_id, 1, 24, &d);
 800178e:	f7ff fd0f 	bl	80011b0 <dmxl_write_data>
 8001792:	e79e      	b.n	80016d2 <dmxl_set_control_mode+0x16>
 8001794:	00030d3f 	.word	0x00030d3f

08001798 <dmxl_set_control_target>:
  }
}

void dmxl_set_control_target(const uint8_t port_idx, 
                             const uint16_t target)
{
 8001798:	b530      	push	{r4, r5, lr}
  //printf("dmxl_set_control_target %d %d\r\n", port_idx, (int)target);
  if (port_idx >= NUM_DMXL)
 800179a:	2803      	cmp	r0, #3
  }
}

void dmxl_set_control_target(const uint8_t port_idx, 
                             const uint16_t target)
{
 800179c:	b085      	sub	sp, #20
 800179e:	460c      	mov	r4, r1
  //printf("dmxl_set_control_target %d %d\r\n", port_idx, (int)target);
  if (port_idx >= NUM_DMXL)
 80017a0:	d901      	bls.n	80017a6 <dmxl_set_control_target+0xe>
    return;
  uint8_t d[2];
  d[0] = target & 0xff;
  d[1] = (target >> 8) & 0xff;
  dmxl_write_data(port_idx, DMXL_DEFAULT_ID, 2, 30, d);
}
 80017a2:	b005      	add	sp, #20
 80017a4:	bd30      	pop	{r4, r5, pc}
  if (port_idx >= NUM_DMXL)
    return;
  uint8_t d[2];
  d[0] = target & 0xff;
  d[1] = (target >> 8) & 0xff;
  dmxl_write_data(port_idx, DMXL_DEFAULT_ID, 2, 30, d);
 80017a6:	ab03      	add	r3, sp, #12
  //printf("dmxl_set_control_target %d %d\r\n", port_idx, (int)target);
  if (port_idx >= NUM_DMXL)
    return;
  uint8_t d[2];
  d[0] = target & 0xff;
  d[1] = (target >> 8) & 0xff;
 80017a8:	0a0d      	lsrs	r5, r1, #8
  dmxl_write_data(port_idx, DMXL_DEFAULT_ID, 2, 30, d);
 80017aa:	9300      	str	r3, [sp, #0]
 80017ac:	2101      	movs	r1, #1
 80017ae:	2202      	movs	r2, #2
 80017b0:	231e      	movs	r3, #30
{
  //printf("dmxl_set_control_target %d %d\r\n", port_idx, (int)target);
  if (port_idx >= NUM_DMXL)
    return;
  uint8_t d[2];
  d[0] = target & 0xff;
 80017b2:	f88d 400c 	strb.w	r4, [sp, #12]
  d[1] = (target >> 8) & 0xff;
 80017b6:	f88d 500d 	strb.w	r5, [sp, #13]
  dmxl_write_data(port_idx, DMXL_DEFAULT_ID, 2, 30, d);
 80017ba:	f7ff fcf9 	bl	80011b0 <dmxl_write_data>
}
 80017be:	b005      	add	sp, #20
 80017c0:	bd30      	pop	{r4, r5, pc}
 80017c2:	bf00      	nop

080017c4 <dmxl_poll>:

void dmxl_poll()
{
 80017c4:	b5f0      	push	{r4, r5, r6, r7, lr}
 80017c6:	4e19      	ldr	r6, [pc, #100]	; (800182c <dmxl_poll+0x68>)
 80017c8:	b083      	sub	sp, #12
  // spin through and poll all their angles, velocities, currents, 
  // voltages, temperatures, etc.
  for (uint_fast8_t i = 0; i < NUM_DMXL; i++)
 80017ca:	2400      	movs	r4, #0
  d[1] = (target >> 8) & 0xff;
  dmxl_write_data(port_idx, DMXL_DEFAULT_ID, 2, 30, d);
}

void dmxl_poll()
{
 80017cc:	4635      	mov	r5, r6
  // spin through and poll all their angles, velocities, currents, 
  // voltages, temperatures, etc.
  for (uint_fast8_t i = 0; i < NUM_DMXL; i++)
  {
    g_dmxl_ports[i].comms_state = DMXL_CS_POLL_STATE;
 80017ce:	2702      	movs	r7, #2
    dmxl_read_data(i, DMXL_DEFAULT_ID, 8, 36);
 80017d0:	b2e0      	uxtb	r0, r4
{
  // spin through and poll all their angles, velocities, currents, 
  // voltages, temperatures, etc.
  for (uint_fast8_t i = 0; i < NUM_DMXL; i++)
  {
    g_dmxl_ports[i].comms_state = DMXL_CS_POLL_STATE;
 80017d2:	742f      	strb	r7, [r5, #16]

void dmxl_poll()
{
  // spin through and poll all their angles, velocities, currents, 
  // voltages, temperatures, etc.
  for (uint_fast8_t i = 0; i < NUM_DMXL; i++)
 80017d4:	3401      	adds	r4, #1
  {
    g_dmxl_ports[i].comms_state = DMXL_CS_POLL_STATE;
    dmxl_read_data(i, DMXL_DEFAULT_ID, 8, 36);
 80017d6:	f7ff fd0b 	bl	80011f0 <dmxl_read_data.constprop.2>

void dmxl_poll()
{
  // spin through and poll all their angles, velocities, currents, 
  // voltages, temperatures, etc.
  for (uint_fast8_t i = 0; i < NUM_DMXL; i++)
 80017da:	2c04      	cmp	r4, #4
 80017dc:	f105 0518 	add.w	r5, r5, #24
 80017e0:	d1f6      	bne.n	80017d0 <dmxl_poll+0xc>
  {
    g_dmxl_ports[i].comms_state = DMXL_CS_POLL_STATE;
    dmxl_read_data(i, DMXL_DEFAULT_ID, 8, 36);
  }
  volatile uint32_t t_start = SYSTIME;
 80017e2:	f04f 4380 	mov.w	r3, #1073741824	; 0x40000000
  while (SYSTIME - t_start < 10000)
 80017e6:	461f      	mov	r7, r3
 80017e8:	4c11      	ldr	r4, [pc, #68]	; (8001830 <dmxl_poll+0x6c>)
  for (uint_fast8_t i = 0; i < NUM_DMXL; i++)
  {
    g_dmxl_ports[i].comms_state = DMXL_CS_POLL_STATE;
    dmxl_read_data(i, DMXL_DEFAULT_ID, 8, 36);
  }
  volatile uint32_t t_start = SYSTIME;
 80017ea:	6a5b      	ldr	r3, [r3, #36]	; 0x24
 80017ec:	9301      	str	r3, [sp, #4]
  while (SYSTIME - t_start < 10000)
 80017ee:	f242 750f 	movw	r5, #9999	; 0x270f
 80017f2:	6a7a      	ldr	r2, [r7, #36]	; 0x24
 80017f4:	9b01      	ldr	r3, [sp, #4]
 80017f6:	1ad3      	subs	r3, r2, r3
 80017f8:	42ab      	cmp	r3, r5
 80017fa:	d80c      	bhi.n	8001816 <dmxl_poll+0x52>
  {
    dmxl_process_rings();
 80017fc:	f7ff fe46 	bl	800148c <dmxl_process_rings>
 8001800:	4b0c      	ldr	r3, [pc, #48]	; (8001834 <dmxl_poll+0x70>)
    // also spin around the ethernet rings here? probably not.
    int all_done = 1;
 8001802:	2201      	movs	r2, #1
    for (uint_fast8_t i = 0; i < NUM_DMXL; i++)
      if (g_dmxl_ports[i].comms_state == DMXL_CS_POLL_STATE)
 8001804:	7c19      	ldrb	r1, [r3, #16]
 8001806:	3318      	adds	r3, #24
        all_done = 0;
 8001808:	2902      	cmp	r1, #2
 800180a:	bf08      	it	eq
 800180c:	2200      	moveq	r2, #0
  while (SYSTIME - t_start < 10000)
  {
    dmxl_process_rings();
    // also spin around the ethernet rings here? probably not.
    int all_done = 1;
    for (uint_fast8_t i = 0; i < NUM_DMXL; i++)
 800180e:	42a3      	cmp	r3, r4
 8001810:	d1f8      	bne.n	8001804 <dmxl_poll+0x40>
      if (g_dmxl_ports[i].comms_state == DMXL_CS_POLL_STATE)
        all_done = 0;
    if (all_done)
 8001812:	2a00      	cmp	r2, #0
 8001814:	d0ed      	beq.n	80017f2 <dmxl_poll+0x2e>
      break;
  }
  // set the comms state to "idle" even if we didn't hear back from it by now
  for (uint_fast8_t i = 0; i < NUM_DMXL; i++)
    g_dmxl_ports[i].comms_state = DMXL_CS_IDLE;
 8001816:	2300      	movs	r3, #0
 8001818:	7433      	strb	r3, [r6, #16]
 800181a:	f886 3028 	strb.w	r3, [r6, #40]	; 0x28
 800181e:	f886 3040 	strb.w	r3, [r6, #64]	; 0x40
 8001822:	f886 3058 	strb.w	r3, [r6, #88]	; 0x58
}
 8001826:	b003      	add	sp, #12
 8001828:	bdf0      	pop	{r4, r5, r6, r7, pc}
 800182a:	bf00      	nop
 800182c:	2000000c 	.word	0x2000000c
 8001830:	2000006c 	.word	0x2000006c
 8001834:	2000000c 	.word	0x2000000c

08001838 <fan_init>:

#define PORTD_FAN_EN 15

void fan_init()
{
  RCC->AHB1ENR |= RCC_AHB1ENR_GPIODEN;
 8001838:	4a05      	ldr	r2, [pc, #20]	; (8001850 <fan_init+0x18>)
  GPIOD->MODER |= 1 << (PORTD_FAN_EN * 2); // set as output pin
 800183a:	4b06      	ldr	r3, [pc, #24]	; (8001854 <fan_init+0x1c>)

#define PORTD_FAN_EN 15

void fan_init()
{
  RCC->AHB1ENR |= RCC_AHB1ENR_GPIODEN;
 800183c:	6b11      	ldr	r1, [r2, #48]	; 0x30
 800183e:	f041 0108 	orr.w	r1, r1, #8
 8001842:	6311      	str	r1, [r2, #48]	; 0x30
  GPIOD->MODER |= 1 << (PORTD_FAN_EN * 2); // set as output pin
 8001844:	681a      	ldr	r2, [r3, #0]
 8001846:	f042 4280 	orr.w	r2, r2, #1073741824	; 0x40000000
 800184a:	601a      	str	r2, [r3, #0]
 800184c:	4770      	bx	lr
 800184e:	bf00      	nop
 8001850:	40023800 	.word	0x40023800
 8001854:	40020c00 	.word	0x40020c00

08001858 <fan_on>:
}

void fan_on()
{
  GPIOD->BSRRL |= 1 << PORTD_FAN_EN;
 8001858:	4a04      	ldr	r2, [pc, #16]	; (800186c <fan_on+0x14>)
 800185a:	8b13      	ldrh	r3, [r2, #24]
 800185c:	ea6f 4343 	mvn.w	r3, r3, lsl #17
 8001860:	ea6f 4353 	mvn.w	r3, r3, lsr #17
 8001864:	b29b      	uxth	r3, r3
 8001866:	8313      	strh	r3, [r2, #24]
 8001868:	4770      	bx	lr
 800186a:	bf00      	nop
 800186c:	40020c00 	.word	0x40020c00

08001870 <fan_off>:
}

void fan_off()
{
  GPIOD->BSRRH |= 1 << PORTD_FAN_EN;
 8001870:	4a04      	ldr	r2, [pc, #16]	; (8001884 <fan_off+0x14>)
 8001872:	8b53      	ldrh	r3, [r2, #26]
 8001874:	ea6f 4343 	mvn.w	r3, r3, lsl #17
 8001878:	ea6f 4353 	mvn.w	r3, r3, lsr #17
 800187c:	b29b      	uxth	r3, r3
 800187e:	8353      	strh	r3, [r2, #26]
 8001880:	4770      	bx	lr
 8001882:	bf00      	nop
 8001884:	40020c00 	.word	0x40020c00

08001888 <tactile_bridge_spi_txrx.part.0>:
  const uint8_t reg_val = rxd[2];
  //printf("spi reg 0x%02x = 0x%02x\r\n", reg_idx, reg_val);
  return reg_val;
}

static void tactile_bridge_spi_txrx(const uint8_t bridge_idx,
 8001888:	b4f0      	push	{r4, r5, r6, r7}
  if (bridge_idx > 1)
    return;
  SPI_TypeDef *spi;
  GPIO_TypeDef *cs_gpio;
  uint32_t cs_pin_mask;
  if (bridge_idx == 0)
 800188a:	4f2c      	ldr	r7, [pc, #176]	; (800193c <tactile_bridge_spi_txrx.part.0+0xb4>)
 800188c:	4e2c      	ldr	r6, [pc, #176]	; (8001940 <tactile_bridge_spi_txrx.part.0+0xb8>)
 800188e:	4d2d      	ldr	r5, [pc, #180]	; (8001944 <tactile_bridge_spi_txrx.part.0+0xbc>)
 8001890:	4c2d      	ldr	r4, [pc, #180]	; (8001948 <tactile_bridge_spi_txrx.part.0+0xc0>)
 8001892:	2800      	cmp	r0, #0
 8001894:	bf18      	it	ne
 8001896:	463e      	movne	r6, r7
  const uint8_t reg_val = rxd[2];
  //printf("spi reg 0x%02x = 0x%02x\r\n", reg_idx, reg_val);
  return reg_val;
}

static void tactile_bridge_spi_txrx(const uint8_t bridge_idx,
 8001898:	b084      	sub	sp, #16
  if (bridge_idx > 1)
    return;
  SPI_TypeDef *spi;
  GPIO_TypeDef *cs_gpio;
  uint32_t cs_pin_mask;
  if (bridge_idx == 0)
 800189a:	bf14      	ite	ne
 800189c:	f44f 7700 	movne.w	r7, #512	; 0x200
 80018a0:	2710      	moveq	r7, #16
    cs_gpio = GPIOB;
    cs_pin_mask = 1 << PORTB_BRIDGE1_CS;
  }
  // assert CS 
  cs_gpio->BSRRH = cs_pin_mask;
  for (volatile int i = 0; i < 100; i++) { } // la di dah...
 80018a2:	f04f 0000 	mov.w	r0, #0
    spi = SPI2;
    cs_gpio = GPIOB;
    cs_pin_mask = 1 << PORTB_BRIDGE1_CS;
  }
  // assert CS 
  cs_gpio->BSRRH = cs_pin_mask;
 80018a6:	8377      	strh	r7, [r6, #26]
  for (volatile int i = 0; i < 100; i++) { } // la di dah...
 80018a8:	9000      	str	r0, [sp, #0]
 80018aa:	f8dd c000 	ldr.w	ip, [sp]
  if (bridge_idx > 1)
    return;
  SPI_TypeDef *spi;
  GPIO_TypeDef *cs_gpio;
  uint32_t cs_pin_mask;
  if (bridge_idx == 0)
 80018ae:	bf14      	ite	ne
 80018b0:	4628      	movne	r0, r5
 80018b2:	4620      	moveq	r0, r4
    cs_gpio = GPIOB;
    cs_pin_mask = 1 << PORTB_BRIDGE1_CS;
  }
  // assert CS 
  cs_gpio->BSRRH = cs_pin_mask;
  for (volatile int i = 0; i < 100; i++) { } // la di dah...
 80018b4:	f1bc 0f63 	cmp.w	ip, #99	; 0x63
 80018b8:	dc05      	bgt.n	80018c6 <tactile_bridge_spi_txrx.part.0+0x3e>
 80018ba:	9c00      	ldr	r4, [sp, #0]
 80018bc:	3401      	adds	r4, #1
 80018be:	9400      	str	r4, [sp, #0]
 80018c0:	9c00      	ldr	r4, [sp, #0]
 80018c2:	2c63      	cmp	r4, #99	; 0x63
 80018c4:	ddf9      	ble.n	80018ba <tactile_bridge_spi_txrx.part.0+0x32>
  spi->DR; // clear rx buffer
 80018c6:	8984      	ldrh	r4, [r0, #12]
  for (uint8_t i = 0; i < txrx_len; i++)
 80018c8:	b1f1      	cbz	r1, 8001908 <tactile_bridge_spi_txrx.part.0+0x80>
 80018ca:	2500      	movs	r5, #0
    while (spi->SR & SPI_SR_BSY) { }
    if (rxd)
      rxd[i] = spi->DR; 
    else
      spi->DR;
    for (volatile int i = 0; i < 150; i++) { } // wait between SPI bytes
 80018cc:	46ac      	mov	ip, r5
  cs_gpio->BSRRH = cs_pin_mask;
  for (volatile int i = 0; i < 100; i++) { } // la di dah...
  spi->DR; // clear rx buffer
  for (uint8_t i = 0; i < txrx_len; i++)
  {
    spi->DR = txd[i]; // read internal register command
 80018ce:	5d54      	ldrb	r4, [r2, r5]
 80018d0:	8184      	strh	r4, [r0, #12]
    while (!(spi->SR & SPI_SR_TXE)) { } // wait for buffer room
 80018d2:	8904      	ldrh	r4, [r0, #8]
 80018d4:	07a4      	lsls	r4, r4, #30
 80018d6:	d5fc      	bpl.n	80018d2 <tactile_bridge_spi_txrx.part.0+0x4a>
    while (!(spi->SR & SPI_SR_RXNE)) { }
 80018d8:	8904      	ldrh	r4, [r0, #8]
 80018da:	07e4      	lsls	r4, r4, #31
 80018dc:	d5fc      	bpl.n	80018d8 <tactile_bridge_spi_txrx.part.0+0x50>
    while (spi->SR & SPI_SR_BSY) { }
 80018de:	8904      	ldrh	r4, [r0, #8]
 80018e0:	0624      	lsls	r4, r4, #24
 80018e2:	d4fc      	bmi.n	80018de <tactile_bridge_spi_txrx.part.0+0x56>
    if (rxd)
      rxd[i] = spi->DR; 
 80018e4:	8984      	ldrh	r4, [r0, #12]
  {
    spi->DR = txd[i]; // read internal register command
    while (!(spi->SR & SPI_SR_TXE)) { } // wait for buffer room
    while (!(spi->SR & SPI_SR_RXNE)) { }
    while (spi->SR & SPI_SR_BSY) { }
    if (rxd)
 80018e6:	b103      	cbz	r3, 80018ea <tactile_bridge_spi_txrx.part.0+0x62>
      rxd[i] = spi->DR; 
 80018e8:	555c      	strb	r4, [r3, r5]
    else
      spi->DR;
    for (volatile int i = 0; i < 150; i++) { } // wait between SPI bytes
 80018ea:	f8cd c004 	str.w	ip, [sp, #4]
 80018ee:	9c01      	ldr	r4, [sp, #4]
 80018f0:	2c95      	cmp	r4, #149	; 0x95
 80018f2:	dc05      	bgt.n	8001900 <tactile_bridge_spi_txrx.part.0+0x78>
 80018f4:	9c01      	ldr	r4, [sp, #4]
 80018f6:	3401      	adds	r4, #1
 80018f8:	9401      	str	r4, [sp, #4]
 80018fa:	9c01      	ldr	r4, [sp, #4]
 80018fc:	2c95      	cmp	r4, #149	; 0x95
 80018fe:	ddf9      	ble.n	80018f4 <tactile_bridge_spi_txrx.part.0+0x6c>
 8001900:	3501      	adds	r5, #1
  }
  // assert CS 
  cs_gpio->BSRRH = cs_pin_mask;
  for (volatile int i = 0; i < 100; i++) { } // la di dah...
  spi->DR; // clear rx buffer
  for (uint8_t i = 0; i < txrx_len; i++)
 8001902:	b2ec      	uxtb	r4, r5
 8001904:	42a1      	cmp	r1, r4
 8001906:	d8e2      	bhi.n	80018ce <tactile_bridge_spi_txrx.part.0+0x46>
      rxd[i] = spi->DR; 
    else
      spi->DR;
    for (volatile int i = 0; i < 150; i++) { } // wait between SPI bytes
  }
  for (volatile int i = 0; i < 100; i++) { } // la di dah...
 8001908:	2300      	movs	r3, #0
 800190a:	9302      	str	r3, [sp, #8]
 800190c:	9b02      	ldr	r3, [sp, #8]
 800190e:	2b63      	cmp	r3, #99	; 0x63
 8001910:	dc05      	bgt.n	800191e <tactile_bridge_spi_txrx.part.0+0x96>
 8001912:	9b02      	ldr	r3, [sp, #8]
 8001914:	3301      	adds	r3, #1
 8001916:	9302      	str	r3, [sp, #8]
 8001918:	9b02      	ldr	r3, [sp, #8]
 800191a:	2b63      	cmp	r3, #99	; 0x63
 800191c:	ddf9      	ble.n	8001912 <tactile_bridge_spi_txrx.part.0+0x8a>
  cs_gpio->BSRRL = cs_pin_mask;
  for (volatile int i = 0; i < 100; i++) { } // la di dah...
 800191e:	2300      	movs	r3, #0
    else
      spi->DR;
    for (volatile int i = 0; i < 150; i++) { } // wait between SPI bytes
  }
  for (volatile int i = 0; i < 100; i++) { } // la di dah...
  cs_gpio->BSRRL = cs_pin_mask;
 8001920:	8337      	strh	r7, [r6, #24]
  for (volatile int i = 0; i < 100; i++) { } // la di dah...
 8001922:	9303      	str	r3, [sp, #12]
 8001924:	9b03      	ldr	r3, [sp, #12]
 8001926:	2b63      	cmp	r3, #99	; 0x63
 8001928:	dc05      	bgt.n	8001936 <tactile_bridge_spi_txrx.part.0+0xae>
 800192a:	9b03      	ldr	r3, [sp, #12]
 800192c:	3301      	adds	r3, #1
 800192e:	9303      	str	r3, [sp, #12]
 8001930:	9b03      	ldr	r3, [sp, #12]
 8001932:	2b63      	cmp	r3, #99	; 0x63
 8001934:	ddf9      	ble.n	800192a <tactile_bridge_spi_txrx.part.0+0xa2>
}
 8001936:	b004      	add	sp, #16
 8001938:	bcf0      	pop	{r4, r5, r6, r7}
 800193a:	4770      	bx	lr
 800193c:	40020400 	.word	0x40020400
 8001940:	40020000 	.word	0x40020000
 8001944:	40003800 	.word	0x40003800
 8001948:	40013000 	.word	0x40013000

0800194c <tactile_bridge_read_reg>:
  //printf("\r\n");
}

static uint8_t tactile_bridge_read_reg(const uint8_t bridge_idx,
                                       const uint8_t reg_idx)
{
 800194c:	b500      	push	{lr}
 800194e:	b083      	sub	sp, #12
  uint8_t rxd[3] = {0};
 8001950:	2300      	movs	r3, #0
  uint8_t txd[3] = {0x21, reg_idx, 0};
 8001952:	2221      	movs	r2, #33	; 0x21
static void tactile_bridge_spi_txrx(const uint8_t bridge_idx,
                                    const uint8_t txrx_len,
                                    const uint8_t *txd,
                                    uint8_t *rxd)
{
  if (bridge_idx > 1)
 8001954:	2801      	cmp	r0, #1

static uint8_t tactile_bridge_read_reg(const uint8_t bridge_idx,
                                       const uint8_t reg_idx)
{
  uint8_t rxd[3] = {0};
  uint8_t txd[3] = {0x21, reg_idx, 0};
 8001956:	f88d 1005 	strb.w	r1, [sp, #5]
}

static uint8_t tactile_bridge_read_reg(const uint8_t bridge_idx,
                                       const uint8_t reg_idx)
{
  uint8_t rxd[3] = {0};
 800195a:	f8ad 3000 	strh.w	r3, [sp]
 800195e:	f88d 3002 	strb.w	r3, [sp, #2]
  uint8_t txd[3] = {0x21, reg_idx, 0};
 8001962:	f88d 3006 	strb.w	r3, [sp, #6]
 8001966:	f88d 2004 	strb.w	r2, [sp, #4]
static void tactile_bridge_spi_txrx(const uint8_t bridge_idx,
                                    const uint8_t txrx_len,
                                    const uint8_t *txd,
                                    uint8_t *rxd)
{
  if (bridge_idx > 1)
 800196a:	d903      	bls.n	8001974 <tactile_bridge_read_reg+0x28>
 800196c:	4618      	mov	r0, r3
  uint8_t txd[3] = {0x21, reg_idx, 0};
  tactile_bridge_spi_txrx(bridge_idx, 3, txd, rxd);
  const uint8_t reg_val = rxd[2];
  //printf("spi reg 0x%02x = 0x%02x\r\n", reg_idx, reg_val);
  return reg_val;
}
 800196e:	b003      	add	sp, #12
 8001970:	f85d fb04 	ldr.w	pc, [sp], #4
 8001974:	2103      	movs	r1, #3
 8001976:	aa01      	add	r2, sp, #4
 8001978:	466b      	mov	r3, sp
 800197a:	f7ff ff85 	bl	8001888 <tactile_bridge_spi_txrx.part.0>
 800197e:	f89d 0002 	ldrb.w	r0, [sp, #2]
 8001982:	b003      	add	sp, #12
 8001984:	f85d fb04 	ldr.w	pc, [sp], #4

08001988 <tactile_bridge_reset>:
  */
  printf("done with tactile_init()\r\n");
}

void tactile_bridge_reset()
{
 8001988:	b500      	push	{lr}
  // the two SPI-I2C bridges have their RESETs tied to a common MCU pin,
  // so this function will reset both of them
  printf("tactile_bridge_reset()\r\n");
 800198a:	4814      	ldr	r0, [pc, #80]	; (80019dc <tactile_bridge_reset+0x54>)
  */
  printf("done with tactile_init()\r\n");
}

void tactile_bridge_reset()
{
 800198c:	b083      	sub	sp, #12
  // the two SPI-I2C bridges have their RESETs tied to a common MCU pin,
  // so this function will reset both of them
  printf("tactile_bridge_reset()\r\n");
 800198e:	f000 fd59 	bl	8002444 <puts>
  GPIOC->BSRRH = 1 << PORTC_I2C_BRIDGE_RESET;
 8001992:	4a13      	ldr	r2, [pc, #76]	; (80019e0 <tactile_bridge_reset+0x58>)
  for (volatile int i = 0; i < 10000; i++) { } // assert RESET
 8001994:	2300      	movs	r3, #0
void tactile_bridge_reset()
{
  // the two SPI-I2C bridges have their RESETs tied to a common MCU pin,
  // so this function will reset both of them
  printf("tactile_bridge_reset()\r\n");
  GPIOC->BSRRH = 1 << PORTC_I2C_BRIDGE_RESET;
 8001996:	f44f 4180 	mov.w	r1, #16384	; 0x4000
 800199a:	8351      	strh	r1, [r2, #26]
  for (volatile int i = 0; i < 10000; i++) { } // assert RESET
 800199c:	9300      	str	r3, [sp, #0]
 800199e:	9b00      	ldr	r3, [sp, #0]
 80019a0:	f242 720f 	movw	r2, #9999	; 0x270f
 80019a4:	4293      	cmp	r3, r2
 80019a6:	dc05      	bgt.n	80019b4 <tactile_bridge_reset+0x2c>
 80019a8:	9b00      	ldr	r3, [sp, #0]
 80019aa:	3301      	adds	r3, #1
 80019ac:	9300      	str	r3, [sp, #0]
 80019ae:	9b00      	ldr	r3, [sp, #0]
 80019b0:	4293      	cmp	r3, r2
 80019b2:	ddf9      	ble.n	80019a8 <tactile_bridge_reset+0x20>
  GPIOC->BSRRL = 1 << PORTC_I2C_BRIDGE_RESET;
 80019b4:	4a0a      	ldr	r2, [pc, #40]	; (80019e0 <tactile_bridge_reset+0x58>)
  for (volatile int i = 0; i < 10000; i++) { } // then let them boot up
 80019b6:	2300      	movs	r3, #0
  // the two SPI-I2C bridges have their RESETs tied to a common MCU pin,
  // so this function will reset both of them
  printf("tactile_bridge_reset()\r\n");
  GPIOC->BSRRH = 1 << PORTC_I2C_BRIDGE_RESET;
  for (volatile int i = 0; i < 10000; i++) { } // assert RESET
  GPIOC->BSRRL = 1 << PORTC_I2C_BRIDGE_RESET;
 80019b8:	f44f 4180 	mov.w	r1, #16384	; 0x4000
 80019bc:	8311      	strh	r1, [r2, #24]
  for (volatile int i = 0; i < 10000; i++) { } // then let them boot up
 80019be:	9301      	str	r3, [sp, #4]
 80019c0:	9b01      	ldr	r3, [sp, #4]
 80019c2:	f242 720f 	movw	r2, #9999	; 0x270f
 80019c6:	4293      	cmp	r3, r2
 80019c8:	dc05      	bgt.n	80019d6 <tactile_bridge_reset+0x4e>
 80019ca:	9b01      	ldr	r3, [sp, #4]
 80019cc:	3301      	adds	r3, #1
 80019ce:	9301      	str	r3, [sp, #4]
 80019d0:	9b01      	ldr	r3, [sp, #4]
 80019d2:	4293      	cmp	r3, r2
 80019d4:	ddf9      	ble.n	80019ca <tactile_bridge_reset+0x42>
}
 80019d6:	b003      	add	sp, #12
 80019d8:	f85d fb04 	ldr.w	pc, [sp], #4
 80019dc:	080090c8 	.word	0x080090c8
 80019e0:	40020800 	.word	0x40020800

080019e4 <tactile_init>:
                                 const uint8_t data_len);

//////////////////////////////////////////////////////////////////////////////

void tactile_init()
{
 80019e4:	b510      	push	{r4, lr}
  printf("tactile_init()\r\n");
 80019e6:	4861      	ldr	r0, [pc, #388]	; (8001b6c <tactile_init+0x188>)
 80019e8:	f000 fd2c 	bl	8002444 <puts>
  RCC->AHB1ENR |= RCC_AHB1ENR_GPIOAEN |
 80019ec:	4b60      	ldr	r3, [pc, #384]	; (8001b70 <tactile_init+0x18c>)
  RCC->APB1ENR |= RCC_APB1ENR_I2C1EN |
                  RCC_APB1ENR_I2C3EN |
                  RCC_APB1ENR_SPI2EN;
  RCC->APB2ENR |= RCC_APB2ENR_SPI1EN;

  pin_set_alternate_function(GPIOB, PORTB_I2C1_SCL, 4);
 80019ee:	4861      	ldr	r0, [pc, #388]	; (8001b74 <tactile_init+0x190>)
//////////////////////////////////////////////////////////////////////////////

void tactile_init()
{
  printf("tactile_init()\r\n");
  RCC->AHB1ENR |= RCC_AHB1ENR_GPIOAEN |
 80019f0:	6b1a      	ldr	r2, [r3, #48]	; 0x30
 80019f2:	f042 020f 	orr.w	r2, r2, #15
 80019f6:	631a      	str	r2, [r3, #48]	; 0x30
                  RCC_AHB1ENR_GPIOBEN |
                  RCC_AHB1ENR_GPIOCEN |
                  RCC_AHB1ENR_GPIODEN;
  RCC->APB1ENR |= RCC_APB1ENR_I2C1EN |
 80019f8:	6c1a      	ldr	r2, [r3, #64]	; 0x40
 80019fa:	f442 0220 	orr.w	r2, r2, #10485760	; 0xa00000
 80019fe:	f442 4280 	orr.w	r2, r2, #16384	; 0x4000
 8001a02:	641a      	str	r2, [r3, #64]	; 0x40
                  RCC_APB1ENR_I2C3EN |
                  RCC_APB1ENR_SPI2EN;
  RCC->APB2ENR |= RCC_APB2ENR_SPI1EN;
 8001a04:	6c5a      	ldr	r2, [r3, #68]	; 0x44
 8001a06:	f442 5280 	orr.w	r2, r2, #4096	; 0x1000
 8001a0a:	645a      	str	r2, [r3, #68]	; 0x44

  pin_set_alternate_function(GPIOB, PORTB_I2C1_SCL, 4);
 8001a0c:	2106      	movs	r1, #6
 8001a0e:	2204      	movs	r2, #4
 8001a10:	f000 fac6 	bl	8001fa0 <pin_set_alternate_function>
  pin_set_alternate_function(GPIOB, PORTB_I2C1_SDA, 4);
 8001a14:	4857      	ldr	r0, [pc, #348]	; (8001b74 <tactile_init+0x190>)
 8001a16:	2107      	movs	r1, #7
 8001a18:	2204      	movs	r2, #4
 8001a1a:	f000 fac1 	bl	8001fa0 <pin_set_alternate_function>
  pin_set_output_type(GPIOB, PORTB_I2C1_SCL, PIN_OUTPUT_TYPE_OPEN_DRAIN);
 8001a1e:	4855      	ldr	r0, [pc, #340]	; (8001b74 <tactile_init+0x190>)
 8001a20:	2106      	movs	r1, #6
 8001a22:	2201      	movs	r2, #1
 8001a24:	f000 fa9a 	bl	8001f5c <pin_set_output_type>
  pin_set_output_type(GPIOB, PORTB_I2C1_SDA, PIN_OUTPUT_TYPE_OPEN_DRAIN);
 8001a28:	4852      	ldr	r0, [pc, #328]	; (8001b74 <tactile_init+0x190>)
 8001a2a:	2107      	movs	r1, #7
 8001a2c:	2201      	movs	r2, #1
 8001a2e:	f000 fa95 	bl	8001f5c <pin_set_output_type>

  pin_set_alternate_function(GPIOA, PORTA_I2C3_SCL, 4);
 8001a32:	4851      	ldr	r0, [pc, #324]	; (8001b78 <tactile_init+0x194>)
 8001a34:	2108      	movs	r1, #8
 8001a36:	2204      	movs	r2, #4
 8001a38:	f000 fab2 	bl	8001fa0 <pin_set_alternate_function>
  pin_set_alternate_function(GPIOC, PORTC_I2C3_SDA, 4);
 8001a3c:	484f      	ldr	r0, [pc, #316]	; (8001b7c <tactile_init+0x198>)
 8001a3e:	2109      	movs	r1, #9
 8001a40:	2204      	movs	r2, #4
 8001a42:	f000 faad 	bl	8001fa0 <pin_set_alternate_function>
  pin_set_output_type(GPIOA, PORTA_I2C3_SCL, PIN_OUTPUT_TYPE_OPEN_DRAIN);
 8001a46:	484c      	ldr	r0, [pc, #304]	; (8001b78 <tactile_init+0x194>)
 8001a48:	2108      	movs	r1, #8
 8001a4a:	2201      	movs	r2, #1
 8001a4c:	f000 fa86 	bl	8001f5c <pin_set_output_type>
  pin_set_output_type(GPIOC, PORTC_I2C3_SDA, PIN_OUTPUT_TYPE_OPEN_DRAIN);
 8001a50:	484a      	ldr	r0, [pc, #296]	; (8001b7c <tactile_init+0x198>)
 8001a52:	2109      	movs	r1, #9
 8001a54:	2201      	movs	r2, #1
 8001a56:	f000 fa81 	bl	8001f5c <pin_set_output_type>

  //I2C1->CCR |= I2C_CCR_FS | // set fast mode
  //             35; // 42 MHz / (3 * 400 kHz) == 35
  //I2C1->TRISE = 42 * 300 / 1000 + 1; // not sure here.
  I2C1->CR2   |= APB_MHZ; 
 8001a5a:	4a49      	ldr	r2, [pc, #292]	; (8001b80 <tactile_init+0x19c>)
  I2C1->CCR   |= I2C_CCR; 
  I2C1->TRISE &= ~0x3f;
  I2C1->TRISE |= I2C_TRISE;
  I2C1->CR1   |= I2C_CR1_PE;

  I2C3->CR2   |= APB_MHZ; 
 8001a5c:	4b49      	ldr	r3, [pc, #292]	; (8001b84 <tactile_init+0x1a0>)
  pin_set_output_type(GPIOC, PORTC_I2C3_SDA, PIN_OUTPUT_TYPE_OPEN_DRAIN);

  //I2C1->CCR |= I2C_CCR_FS | // set fast mode
  //             35; // 42 MHz / (3 * 400 kHz) == 35
  //I2C1->TRISE = 42 * 300 / 1000 + 1; // not sure here.
  I2C1->CR2   |= APB_MHZ; 
 8001a5e:	8891      	ldrh	r1, [r2, #4]
  I2C3->TRISE &= ~0x3f;
  I2C3->TRISE |= I2C_TRISE;
  I2C3->CR1   |= I2C_CR1_PE;

  // now, set up the spi-to-i2c bridges
  pin_set_output(GPIOC, PORTC_I2C_BRIDGE_RESET);
 8001a60:	4846      	ldr	r0, [pc, #280]	; (8001b7c <tactile_init+0x198>)
  pin_set_output_type(GPIOC, PORTC_I2C3_SDA, PIN_OUTPUT_TYPE_OPEN_DRAIN);

  //I2C1->CCR |= I2C_CCR_FS | // set fast mode
  //             35; // 42 MHz / (3 * 400 kHz) == 35
  //I2C1->TRISE = 42 * 300 / 1000 + 1; // not sure here.
  I2C1->CR2   |= APB_MHZ; 
 8001a62:	b289      	uxth	r1, r1
 8001a64:	f041 012a 	orr.w	r1, r1, #42	; 0x2a
 8001a68:	8091      	strh	r1, [r2, #4]
  I2C1->CCR   |= I2C_CCR; 
 8001a6a:	8b91      	ldrh	r1, [r2, #28]
 8001a6c:	b289      	uxth	r1, r1
 8001a6e:	f041 01d2 	orr.w	r1, r1, #210	; 0xd2
 8001a72:	8391      	strh	r1, [r2, #28]
  I2C1->TRISE &= ~0x3f;
 8001a74:	8c11      	ldrh	r1, [r2, #32]
 8001a76:	f021 013f 	bic.w	r1, r1, #63	; 0x3f
 8001a7a:	0409      	lsls	r1, r1, #16
 8001a7c:	0c09      	lsrs	r1, r1, #16
 8001a7e:	8411      	strh	r1, [r2, #32]
  I2C1->TRISE |= I2C_TRISE;
 8001a80:	8c11      	ldrh	r1, [r2, #32]
 8001a82:	b289      	uxth	r1, r1
 8001a84:	f041 0109 	orr.w	r1, r1, #9
 8001a88:	8411      	strh	r1, [r2, #32]
  I2C1->CR1   |= I2C_CR1_PE;
 8001a8a:	8811      	ldrh	r1, [r2, #0]
 8001a8c:	b289      	uxth	r1, r1
 8001a8e:	f041 0101 	orr.w	r1, r1, #1
 8001a92:	8011      	strh	r1, [r2, #0]

  I2C3->CR2   |= APB_MHZ; 
 8001a94:	889a      	ldrh	r2, [r3, #4]
 8001a96:	b292      	uxth	r2, r2
 8001a98:	f042 022a 	orr.w	r2, r2, #42	; 0x2a
 8001a9c:	809a      	strh	r2, [r3, #4]
  I2C3->CCR   |= I2C_CCR;
 8001a9e:	8b9a      	ldrh	r2, [r3, #28]
 8001aa0:	b292      	uxth	r2, r2
 8001aa2:	f042 02d2 	orr.w	r2, r2, #210	; 0xd2
 8001aa6:	839a      	strh	r2, [r3, #28]
  I2C3->TRISE &= ~0x3f;
 8001aa8:	8c1a      	ldrh	r2, [r3, #32]
 8001aaa:	f022 023f 	bic.w	r2, r2, #63	; 0x3f
 8001aae:	0412      	lsls	r2, r2, #16
 8001ab0:	0c12      	lsrs	r2, r2, #16
 8001ab2:	841a      	strh	r2, [r3, #32]
  I2C3->TRISE |= I2C_TRISE;
 8001ab4:	8c1a      	ldrh	r2, [r3, #32]
 8001ab6:	b292      	uxth	r2, r2
 8001ab8:	f042 0209 	orr.w	r2, r2, #9
 8001abc:	841a      	strh	r2, [r3, #32]
  I2C3->CR1   |= I2C_CR1_PE;
 8001abe:	881a      	ldrh	r2, [r3, #0]
 8001ac0:	b292      	uxth	r2, r2
 8001ac2:	f042 0201 	orr.w	r2, r2, #1
 8001ac6:	801a      	strh	r2, [r3, #0]

  // now, set up the spi-to-i2c bridges
  pin_set_output(GPIOC, PORTC_I2C_BRIDGE_RESET);
 8001ac8:	210e      	movs	r1, #14
 8001aca:	f000 fa95 	bl	8001ff8 <pin_set_output>
  pin_set_output(GPIOA, PORTA_BRIDGE0_CS);
 8001ace:	482a      	ldr	r0, [pc, #168]	; (8001b78 <tactile_init+0x194>)
 8001ad0:	2104      	movs	r1, #4
 8001ad2:	f000 fa91 	bl	8001ff8 <pin_set_output>
  pin_set_output(GPIOB, PORTB_BRIDGE1_CS);
 8001ad6:	4827      	ldr	r0, [pc, #156]	; (8001b74 <tactile_init+0x190>)
 8001ad8:	2109      	movs	r1, #9
 8001ada:	f000 fa8d 	bl	8001ff8 <pin_set_output>
  pin_set_alternate_function(GPIOA, PORTA_BRIDGE0_MISO, 5);
 8001ade:	4826      	ldr	r0, [pc, #152]	; (8001b78 <tactile_init+0x194>)
 8001ae0:	2106      	movs	r1, #6
 8001ae2:	2205      	movs	r2, #5
 8001ae4:	f000 fa5c 	bl	8001fa0 <pin_set_alternate_function>
  pin_set_alternate_function(GPIOB, PORTB_BRIDGE0_MOSI, 5);
 8001ae8:	2105      	movs	r1, #5
 8001aea:	460a      	mov	r2, r1
 8001aec:	4821      	ldr	r0, [pc, #132]	; (8001b74 <tactile_init+0x190>)
 8001aee:	f000 fa57 	bl	8001fa0 <pin_set_alternate_function>
  pin_set_alternate_function(GPIOA, PORTA_BRIDGE0_SCLK, 5);
 8001af2:	2105      	movs	r1, #5
 8001af4:	460a      	mov	r2, r1
 8001af6:	4820      	ldr	r0, [pc, #128]	; (8001b78 <tactile_init+0x194>)
 8001af8:	f000 fa52 	bl	8001fa0 <pin_set_alternate_function>
  pin_set_alternate_function(GPIOC, PORTC_BRIDGE1_MISO, 5);
 8001afc:	481f      	ldr	r0, [pc, #124]	; (8001b7c <tactile_init+0x198>)
 8001afe:	2102      	movs	r1, #2
 8001b00:	2205      	movs	r2, #5
 8001b02:	f000 fa4d 	bl	8001fa0 <pin_set_alternate_function>
  pin_set_alternate_function(GPIOC, PORTC_BRIDGE1_MOSI, 5);
 8001b06:	481d      	ldr	r0, [pc, #116]	; (8001b7c <tactile_init+0x198>)
 8001b08:	2103      	movs	r1, #3
 8001b0a:	2205      	movs	r2, #5
 8001b0c:	f000 fa48 	bl	8001fa0 <pin_set_alternate_function>
  pin_set_alternate_function(GPIOD, PORTD_BRIDGE1_SCLK, 5);
 8001b10:	481d      	ldr	r0, [pc, #116]	; (8001b88 <tactile_init+0x1a4>)
 8001b12:	2103      	movs	r1, #3
 8001b14:	2205      	movs	r2, #5
 8001b16:	f000 fa43 	bl	8001fa0 <pin_set_alternate_function>
              SPI_CR1_SSM  |
              SPI_CR1_SSI  |
              SPI_CR1_SPE;

  // bit rate = 42 mhz / 64 = 750 kilobit
  SPI2->CR1 = SPI_CR1_BR_2 |
 8001b1a:	4b1c      	ldr	r3, [pc, #112]	; (8001b8c <tactile_init+0x1a8>)
  pin_set_alternate_function(GPIOC, PORTC_BRIDGE1_MOSI, 5);
  pin_set_alternate_function(GPIOD, PORTD_BRIDGE1_SCLK, 5);

  // spi1 is running from a 84 MHz pclk. set it up with 
  // sclk = pclk/128 to stay within datasheet limits.
  SPI1->CR1 = SPI_CR1_BR_2 |
 8001b1c:	491c      	ldr	r1, [pc, #112]	; (8001b90 <tactile_init+0x1ac>)
              SPI_CR1_CPHA |
              SPI_CR1_SSM  |
              SPI_CR1_SSI  |
              SPI_CR1_SPE;

  pin_set_output_level(GPIOA, PORTA_BRIDGE0_CS, 1);
 8001b1e:	4816      	ldr	r0, [pc, #88]	; (8001b78 <tactile_init+0x194>)
  pin_set_alternate_function(GPIOC, PORTC_BRIDGE1_MOSI, 5);
  pin_set_alternate_function(GPIOD, PORTD_BRIDGE1_SCLK, 5);

  // spi1 is running from a 84 MHz pclk. set it up with 
  // sclk = pclk/128 to stay within datasheet limits.
  SPI1->CR1 = SPI_CR1_BR_2 |
 8001b20:	f240 3477 	movw	r4, #887	; 0x377
              SPI_CR1_SSM  |
              SPI_CR1_SSI  |
              SPI_CR1_SPE;

  // bit rate = 42 mhz / 64 = 750 kilobit
  SPI2->CR1 = SPI_CR1_BR_2 |
 8001b24:	f240 326f 	movw	r2, #879	; 0x36f
  pin_set_alternate_function(GPIOC, PORTC_BRIDGE1_MOSI, 5);
  pin_set_alternate_function(GPIOD, PORTD_BRIDGE1_SCLK, 5);

  // spi1 is running from a 84 MHz pclk. set it up with 
  // sclk = pclk/128 to stay within datasheet limits.
  SPI1->CR1 = SPI_CR1_BR_2 |
 8001b28:	800c      	strh	r4, [r1, #0]
              SPI_CR1_SSM  |
              SPI_CR1_SSI  |
              SPI_CR1_SPE;

  // bit rate = 42 mhz / 64 = 750 kilobit
  SPI2->CR1 = SPI_CR1_BR_2 |
 8001b2a:	801a      	strh	r2, [r3, #0]
              SPI_CR1_CPHA |
              SPI_CR1_SSM  |
              SPI_CR1_SSI  |
              SPI_CR1_SPE;

  pin_set_output_level(GPIOA, PORTA_BRIDGE0_CS, 1);
 8001b2c:	2104      	movs	r1, #4
 8001b2e:	2201      	movs	r2, #1
 8001b30:	f000 fa72 	bl	8002018 <pin_set_output_level>
  pin_set_output_level(GPIOA, PORTB_BRIDGE1_CS, 1);
 8001b34:	4810      	ldr	r0, [pc, #64]	; (8001b78 <tactile_init+0x194>)
 8001b36:	2109      	movs	r1, #9
 8001b38:	2201      	movs	r2, #1
 8001b3a:	f000 fa6d 	bl	8002018 <pin_set_output_level>

  tactile_bridge_reset();
 8001b3e:	f7ff ff23 	bl	8001988 <tactile_bridge_reset>
  for (int i = 0; i < 2; i++)
    for (int j = 0; j < 6; j++)
 8001b42:	2400      	movs	r4, #0
      tactile_bridge_read_reg(i, j);
 8001b44:	b2e1      	uxtb	r1, r4
 8001b46:	2000      	movs	r0, #0
  pin_set_output_level(GPIOA, PORTA_BRIDGE0_CS, 1);
  pin_set_output_level(GPIOA, PORTB_BRIDGE1_CS, 1);

  tactile_bridge_reset();
  for (int i = 0; i < 2; i++)
    for (int j = 0; j < 6; j++)
 8001b48:	3401      	adds	r4, #1
      tactile_bridge_read_reg(i, j);
 8001b4a:	f7ff feff 	bl	800194c <tactile_bridge_read_reg>
  pin_set_output_level(GPIOA, PORTA_BRIDGE0_CS, 1);
  pin_set_output_level(GPIOA, PORTB_BRIDGE1_CS, 1);

  tactile_bridge_reset();
  for (int i = 0; i < 2; i++)
    for (int j = 0; j < 6; j++)
 8001b4e:	2c06      	cmp	r4, #6
 8001b50:	d1f8      	bne.n	8001b44 <tactile_init+0x160>
 8001b52:	2400      	movs	r4, #0
      tactile_bridge_read_reg(i, j);
 8001b54:	2001      	movs	r0, #1
 8001b56:	b2e1      	uxtb	r1, r4
  pin_set_output_level(GPIOA, PORTA_BRIDGE0_CS, 1);
  pin_set_output_level(GPIOA, PORTB_BRIDGE1_CS, 1);

  tactile_bridge_reset();
  for (int i = 0; i < 2; i++)
    for (int j = 0; j < 6; j++)
 8001b58:	4404      	add	r4, r0
      tactile_bridge_read_reg(i, j);
 8001b5a:	f7ff fef7 	bl	800194c <tactile_bridge_read_reg>
  pin_set_output_level(GPIOA, PORTA_BRIDGE0_CS, 1);
  pin_set_output_level(GPIOA, PORTB_BRIDGE1_CS, 1);

  tactile_bridge_reset();
  for (int i = 0; i < 2; i++)
    for (int j = 0; j < 6; j++)
 8001b5e:	2c06      	cmp	r4, #6
 8001b60:	d1f8      	bne.n	8001b54 <tactile_init+0x170>
             result == I2C_SUCCESS ? "SUCCESS" : "FAIL",
             port, sensor, mcu_addr);
    }
  }
  */
  printf("done with tactile_init()\r\n");
 8001b62:	480c      	ldr	r0, [pc, #48]	; (8001b94 <tactile_init+0x1b0>)
}
 8001b64:	e8bd 4010 	ldmia.w	sp!, {r4, lr}
             result == I2C_SUCCESS ? "SUCCESS" : "FAIL",
             port, sensor, mcu_addr);
    }
  }
  */
  printf("done with tactile_init()\r\n");
 8001b68:	f000 bc6c 	b.w	8002444 <puts>
 8001b6c:	080090e0 	.word	0x080090e0
 8001b70:	40023800 	.word	0x40023800
 8001b74:	40020400 	.word	0x40020400
 8001b78:	40020000 	.word	0x40020000
 8001b7c:	40020800 	.word	0x40020800
 8001b80:	40005400 	.word	0x40005400
 8001b84:	40005c00 	.word	0x40005c00
 8001b88:	40020c00 	.word	0x40020c00
 8001b8c:	40003800 	.word	0x40003800
 8001b90:	40013000 	.word	0x40013000
 8001b94:	080090f0 	.word	0x080090f0

08001b98 <tactile_bridge_wait_for_completion>:
  for (volatile int i = 0; i < 100; i++) { } // la di dah...
}

tactile_i2c_result_t 
tactile_bridge_wait_for_completion(const uint8_t bridge_idx)
{
 8001b98:	b570      	push	{r4, r5, r6, lr}
 8001b9a:	b082      	sub	sp, #8
  for (volatile int i = 0; i < 1000; i++) { } // la di dah...
 8001b9c:	2300      	movs	r3, #0
 8001b9e:	9300      	str	r3, [sp, #0]
 8001ba0:	9b00      	ldr	r3, [sp, #0]
 8001ba2:	f5b3 7f7a 	cmp.w	r3, #1000	; 0x3e8
  for (volatile int i = 0; i < 100; i++) { } // la di dah...
}

tactile_i2c_result_t 
tactile_bridge_wait_for_completion(const uint8_t bridge_idx)
{
 8001ba6:	4605      	mov	r5, r0
  for (volatile int i = 0; i < 1000; i++) { } // la di dah...
 8001ba8:	da06      	bge.n	8001bb8 <tactile_bridge_wait_for_completion+0x20>
 8001baa:	9b00      	ldr	r3, [sp, #0]
 8001bac:	3301      	adds	r3, #1
 8001bae:	9300      	str	r3, [sp, #0]
 8001bb0:	9b00      	ldr	r3, [sp, #0]
 8001bb2:	f5b3 7f7a 	cmp.w	r3, #1000	; 0x3e8
 8001bb6:	dbf8      	blt.n	8001baa <tactile_bridge_wait_for_completion+0x12>
  for (volatile int i = 0; i < 100; i++) { } // la di dah...
}

tactile_i2c_result_t 
tactile_bridge_wait_for_completion(const uint8_t bridge_idx)
{
 8001bb8:	f240 34e9 	movw	r4, #1001	; 0x3e9
  for (volatile int i = 0; i < 1000; i++) { } // la di dah...
  uint8_t bridge_state = 0xf3;
  int wait_count = 0;
  while (bridge_state == 0xf3)
  {
    for (volatile int i = 0; i < 1000; i++) { } // la di dah...
 8001bbc:	2600      	movs	r6, #0
 8001bbe:	9601      	str	r6, [sp, #4]
 8001bc0:	9b01      	ldr	r3, [sp, #4]
 8001bc2:	f5b3 7f7a 	cmp.w	r3, #1000	; 0x3e8
 8001bc6:	da06      	bge.n	8001bd6 <tactile_bridge_wait_for_completion+0x3e>
 8001bc8:	9b01      	ldr	r3, [sp, #4]
 8001bca:	3301      	adds	r3, #1
 8001bcc:	9301      	str	r3, [sp, #4]
 8001bce:	9b01      	ldr	r3, [sp, #4]
 8001bd0:	f5b3 7f7a 	cmp.w	r3, #1000	; 0x3e8
 8001bd4:	dbf8      	blt.n	8001bc8 <tactile_bridge_wait_for_completion+0x30>
    bridge_state = tactile_bridge_read_reg(bridge_idx, 0x4);
 8001bd6:	4628      	mov	r0, r5
 8001bd8:	2104      	movs	r1, #4
 8001bda:	f7ff feb7 	bl	800194c <tactile_bridge_read_reg>
    if (++wait_count > 1000) 
 8001bde:	3c01      	subs	r4, #1
 8001be0:	d007      	beq.n	8001bf2 <tactile_bridge_wait_for_completion+0x5a>
tactile_bridge_wait_for_completion(const uint8_t bridge_idx)
{
  for (volatile int i = 0; i < 1000; i++) { } // la di dah...
  uint8_t bridge_state = 0xf3;
  int wait_count = 0;
  while (bridge_state == 0xf3)
 8001be2:	28f3      	cmp	r0, #243	; 0xf3
 8001be4:	d0eb      	beq.n	8001bbe <tactile_bridge_wait_for_completion+0x26>
    bridge_state = tactile_bridge_read_reg(bridge_idx, 0x4);
    if (++wait_count > 1000) 
    {
      // a SPI-I2C bridge locked up. try to reset them.
      tactile_bridge_reset();
      return I2C_FAIL;
 8001be6:	f1b0 03f0 	subs.w	r3, r0, #240	; 0xf0
 8001bea:	4258      	negs	r0, r3
 8001bec:	4158      	adcs	r0, r3
  }
  if (bridge_state == 0xf0)
    return I2C_SUCCESS;
  else
    return I2C_FAIL;
}
 8001bee:	b002      	add	sp, #8
 8001bf0:	bd70      	pop	{r4, r5, r6, pc}
    for (volatile int i = 0; i < 1000; i++) { } // la di dah...
    bridge_state = tactile_bridge_read_reg(bridge_idx, 0x4);
    if (++wait_count > 1000) 
    {
      // a SPI-I2C bridge locked up. try to reset them.
      tactile_bridge_reset();
 8001bf2:	f7ff fec9 	bl	8001988 <tactile_bridge_reset>
      return I2C_FAIL;
 8001bf6:	4620      	mov	r0, r4
  }
  if (bridge_state == 0xf0)
    return I2C_SUCCESS;
  else
    return I2C_FAIL;
}
 8001bf8:	b002      	add	sp, #8
 8001bfa:	bd70      	pop	{r4, r5, r6, pc}

08001bfc <tactile_i2c>:

tactile_i2c_result_t tactile_i2c(uint8_t port,
                                 uint8_t address,
                                 uint8_t *data,
                                 uint8_t data_len)
{
 8001bfc:	e92d 47f0 	stmdb	sp!, {r4, r5, r6, r7, r8, r9, sl, lr}
  if (port == 0 || port == 1) // these ports are MCU on-chip I2C interfaces
 8001c00:	2801      	cmp	r0, #1

tactile_i2c_result_t tactile_i2c(uint8_t port,
                                 uint8_t address,
                                 uint8_t *data,
                                 uint8_t data_len)
{
 8001c02:	b0c2      	sub	sp, #264	; 0x108
 8001c04:	468c      	mov	ip, r1
 8001c06:	af00      	add	r7, sp, #0
 8001c08:	4616      	mov	r6, r2
 8001c0a:	4698      	mov	r8, r3
  if (port == 0 || port == 1) // these ports are MCU on-chip I2C interfaces
 8001c0c:	d92f      	bls.n	8001c6e <tactile_i2c+0x72>
    i2c->CR1 |= I2C_CR1_STOP;
    while (i2c->SR2 & I2C_SR2_BUSY) { }
    for (volatile int i = 0; i < 3000; i++) { } // wait a bit
    return address_fail ? I2C_FAIL : I2C_SUCCESS;
  }
  else if (port == 2 || port == 3) // these ports are via SPI-I2C bridge chips
 8001c0e:	3802      	subs	r0, #2
 8001c10:	fa5f f980 	uxtb.w	r9, r0
 8001c14:	f1b9 0f01 	cmp.w	r9, #1
 8001c18:	d905      	bls.n	8001c26 <tactile_i2c+0x2a>
      return tactile_bridge_i2c_read(bridge_idx, address, data_len, data);
    else
      return tactile_bridge_i2c_write(bridge_idx, address, data_len, data);
  }
  else
    return I2C_FAIL;
 8001c1a:	2000      	movs	r0, #0
}
 8001c1c:	f507 7784 	add.w	r7, r7, #264	; 0x108
 8001c20:	46bd      	mov	sp, r7
 8001c22:	e8bd 87f0 	ldmia.w	sp!, {r4, r5, r6, r7, r8, r9, sl, pc}
    return address_fail ? I2C_FAIL : I2C_SUCCESS;
  }
  else if (port == 2 || port == 3) // these ports are via SPI-I2C bridge chips
  {
    const uint8_t bridge_idx = port - 2;
    if (address & 0x1) // is it a read transaction?
 8001c26:	f011 0301 	ands.w	r3, r1, #1
 8001c2a:	f040 8081 	bne.w	8001d30 <tactile_i2c+0x134>
{
  uint8_t trimmed_tx_len = tx_len;
  if (trimmed_tx_len > 250)
    trimmed_tx_len = 250;
  uint8_t msg[256];
  msg[0] = 0x00; // write i2c command
 8001c2e:	f107 0508 	add.w	r5, r7, #8
 8001c32:	f1b8 0ffa 	cmp.w	r8, #250	; 0xfa
 8001c36:	bf34      	ite	cc
